
os.elf:     file format elf32-i386
os.elf
architecture: i386, flags 0x00000112:
EXEC_P, HAS_SYMS, D_PAGED
start address 0x00007c00

Program Header:
    LOAD off    0x00000000 vaddr 0x00007000 paddr 0x00007000 align 2**12
         filesz 0x00010e00 memsz 0x00010e00 flags r-x

Sections:
Idx Name          Size      VMA       LMA       File off  Algn
  0 .text         00010200  00007c00  00007c00  00000c00  2**0
                  CONTENTS, ALLOC, LOAD, READONLY, CODE
  1 .comment      00000012  00000000  00000000  00010e00  2**0
                  CONTENTS, READONLY
  2 .debug_aranges 00000020  00000000  00000000  00010e18  2**3
                  CONTENTS, READONLY, DEBUGGING, OCTETS
  3 .debug_info   00000026  00000000  00000000  00010e38  2**0
                  CONTENTS, READONLY, DEBUGGING, OCTETS
  4 .debug_abbrev 00000014  00000000  00000000  00010e5e  2**0
                  CONTENTS, READONLY, DEBUGGING, OCTETS
  5 .debug_line   00000056  00000000  00000000  00010e72  2**0
                  CONTENTS, READONLY, DEBUGGING, OCTETS
  6 .debug_str    0000008d  00000000  00000000  00010ec8  2**0
                  CONTENTS, READONLY, DEBUGGING, OCTETS
  7 .debug_line_str 00000037  00000000  00000000  00010f55  2**0
                  CONTENTS, READONLY, DEBUGGING, OCTETS
SYMBOL TABLE:
00000000 l    df *ABS*	00000000 start.o
00007c0f l       .text	00000000 read_self_all
00007e00 l       .text	00000000 _start_32
00000000 l    df *ABS*	00000000 os.c
00007c00 g       .text	00000000 _start
00018e00 g       .text	00000000 __bss_start
00018e00 g       .text	00000000 _edata
00018e00 g       .text	00000000 _end



Disassembly of section .text:

00007c00 <_start>:

	// 以下是代码区
 	.text
_start: 
	// x86使用段寄存器中的内容作为内存访问的基址 因此以下预先设置好
	mov $0, %ax				// 设置代码段
    7c00:	b8 00 00 8e d8       	mov    $0xd88e0000,%eax
	mov %ax, %ds			// 设置数据段
	mov %ax, %es			// 设置数据段
    7c05:	8e c0                	mov    %eax,%es
	mov %ax, %ss			// 设置栈段
    7c07:	8e d0                	mov    %eax,%ss
	mov $_start, %esp		// 设置栈的起始地址
    7c09:	66 bc 00 7c          	mov    $0x7c00,%sp
	...

00007c0f <read_self_all>:
	
	// 计算机上电启动之后,只读取了512个字节到0x7c00处
	// 我们接下来,要将自己的其余的部分读取到0x7E00处,即0x7c00后的512个字节
read_self_all:
	mov $_start_32, %bx // 读取到的内存地址
    7c0f:	bb 00 7e b9 02       	mov    $0x2b97e00,%ebx
	mov $0x2, %cx // ch:磁道号, cl:起始扇区
    7c14:	00 b8 40 02 ba 80    	add    %bh,-0x7f45fdc0(%eax)
	mov $0x0240, %ax // ah:0x42读磁盘命令,al=0x40 64个扇区,多读一些,32kb
	mov $0x80, %dx // dh:磁头号 ,dl驱动器号0x80 磁盘1
    7c1a:	00 cd                	add    %cl,%ch
	int $0x0013 // 调用中断,读取磁盘信息
    7c1c:	13 72 f0             	adc    -0x10(%edx),%esi
	jc read_self_all // 读取失败则重复	
	jmp .
    7c1f:	eb fe                	jmp    7c1f <read_self_all+0x10>
	...
    7dfd:	00 55 aa             	add    %dl,-0x56(%ebp)

00007e00 <_start_32>:
    7e00:	35 35 35 35 35       	xor    $0x35353535,%eax
    7e05:	35 35 35 35 35       	xor    $0x35353535,%eax
    7e0a:	35 35 35 35 35       	xor    $0x35353535,%eax
    7e0f:	35 35 35 35 35       	xor    $0x35353535,%eax
    7e14:	35 35 35 35 35       	xor    $0x35353535,%eax
    7e19:	35 35 35 35 35       	xor    $0x35353535,%eax
    7e1e:	35 35 35 35 35       	xor    $0x35353535,%eax
    7e23:	35 35 35 35 35       	xor    $0x35353535,%eax
    7e28:	35 35 35 35 35       	xor    $0x35353535,%eax
    7e2d:	35 35 35 35 35       	xor    $0x35353535,%eax
    7e32:	35 35 35 35 35       	xor    $0x35353535,%eax
    7e37:	35 35 35 35 35       	xor    $0x35353535,%eax
    7e3c:	35 35 35 35 35       	xor    $0x35353535,%eax
    7e41:	35 35 35 35 35       	xor    $0x35353535,%eax
    7e46:	35 35 35 35 35       	xor    $0x35353535,%eax
    7e4b:	35 35 35 35 35       	xor    $0x35353535,%eax
    7e50:	35 35 35 35 35       	xor    $0x35353535,%eax
    7e55:	35 35 35 35 35       	xor    $0x35353535,%eax
    7e5a:	35 35 35 35 35       	xor    $0x35353535,%eax
    7e5f:	35 35 35 35 35       	xor    $0x35353535,%eax
    7e64:	35 35 35 35 35       	xor    $0x35353535,%eax
    7e69:	35 35 35 35 35       	xor    $0x35353535,%eax
    7e6e:	35 35 35 35 35       	xor    $0x35353535,%eax
    7e73:	35 35 35 35 35       	xor    $0x35353535,%eax
    7e78:	35 35 35 35 35       	xor    $0x35353535,%eax
    7e7d:	35 35 35 35 35       	xor    $0x35353535,%eax
    7e82:	35 35 35 35 35       	xor    $0x35353535,%eax
    7e87:	35 35 35 35 35       	xor    $0x35353535,%eax
    7e8c:	35 35 35 35 35       	xor    $0x35353535,%eax
    7e91:	35 35 35 35 35       	xor    $0x35353535,%eax
    7e96:	35 35 35 35 35       	xor    $0x35353535,%eax
    7e9b:	35 35 35 35 35       	xor    $0x35353535,%eax
    7ea0:	35 35 35 35 35       	xor    $0x35353535,%eax
    7ea5:	35 35 35 35 35       	xor    $0x35353535,%eax
    7eaa:	35 35 35 35 35       	xor    $0x35353535,%eax
    7eaf:	35 35 35 35 35       	xor    $0x35353535,%eax
    7eb4:	35 35 35 35 35       	xor    $0x35353535,%eax
    7eb9:	35 35 35 35 35       	xor    $0x35353535,%eax
    7ebe:	35 35 35 35 35       	xor    $0x35353535,%eax
    7ec3:	35 35 35 35 35       	xor    $0x35353535,%eax
    7ec8:	35 35 35 35 35       	xor    $0x35353535,%eax
    7ecd:	35 35 35 35 35       	xor    $0x35353535,%eax
    7ed2:	35 35 35 35 35       	xor    $0x35353535,%eax
    7ed7:	35 35 35 35 35       	xor    $0x35353535,%eax
    7edc:	35 35 35 35 35       	xor    $0x35353535,%eax
    7ee1:	35 35 35 35 35       	xor    $0x35353535,%eax
    7ee6:	35 35 35 35 35       	xor    $0x35353535,%eax
    7eeb:	35 35 35 35 35       	xor    $0x35353535,%eax
    7ef0:	35 35 35 35 35       	xor    $0x35353535,%eax
    7ef5:	35 35 35 35 35       	xor    $0x35353535,%eax
    7efa:	35 35 35 35 35       	xor    $0x35353535,%eax
    7eff:	35 35 35 35 35       	xor    $0x35353535,%eax
    7f04:	35 35 35 35 35       	xor    $0x35353535,%eax
    7f09:	35 35 35 35 35       	xor    $0x35353535,%eax
    7f0e:	35 35 35 35 35       	xor    $0x35353535,%eax
    7f13:	35 35 35 35 35       	xor    $0x35353535,%eax
    7f18:	35 35 35 35 35       	xor    $0x35353535,%eax
    7f1d:	35 35 35 35 35       	xor    $0x35353535,%eax
    7f22:	35 35 35 35 35       	xor    $0x35353535,%eax
    7f27:	35 35 35 35 35       	xor    $0x35353535,%eax
    7f2c:	35 35 35 35 35       	xor    $0x35353535,%eax
    7f31:	35 35 35 35 35       	xor    $0x35353535,%eax
    7f36:	35 35 35 35 35       	xor    $0x35353535,%eax
    7f3b:	35 35 35 35 35       	xor    $0x35353535,%eax
    7f40:	35 35 35 35 35       	xor    $0x35353535,%eax
    7f45:	35 35 35 35 35       	xor    $0x35353535,%eax
    7f4a:	35 35 35 35 35       	xor    $0x35353535,%eax
    7f4f:	35 35 35 35 35       	xor    $0x35353535,%eax
    7f54:	35 35 35 35 35       	xor    $0x35353535,%eax
    7f59:	35 35 35 35 35       	xor    $0x35353535,%eax
    7f5e:	35 35 35 35 35       	xor    $0x35353535,%eax
    7f63:	35 35 35 35 35       	xor    $0x35353535,%eax
    7f68:	35 35 35 35 35       	xor    $0x35353535,%eax
    7f6d:	35 35 35 35 35       	xor    $0x35353535,%eax
    7f72:	35 35 35 35 35       	xor    $0x35353535,%eax
    7f77:	35 35 35 35 35       	xor    $0x35353535,%eax
    7f7c:	35 35 35 35 35       	xor    $0x35353535,%eax
    7f81:	35 35 35 35 35       	xor    $0x35353535,%eax
    7f86:	35 35 35 35 35       	xor    $0x35353535,%eax
    7f8b:	35 35 35 35 35       	xor    $0x35353535,%eax
    7f90:	35 35 35 35 35       	xor    $0x35353535,%eax
    7f95:	35 35 35 35 35       	xor    $0x35353535,%eax
    7f9a:	35 35 35 35 35       	xor    $0x35353535,%eax
    7f9f:	35 35 35 35 35       	xor    $0x35353535,%eax
    7fa4:	35 35 35 35 35       	xor    $0x35353535,%eax
    7fa9:	35 35 35 35 35       	xor    $0x35353535,%eax
    7fae:	35 35 35 35 35       	xor    $0x35353535,%eax
    7fb3:	35 35 35 35 35       	xor    $0x35353535,%eax
    7fb8:	35 35 35 35 35       	xor    $0x35353535,%eax
    7fbd:	35 35 35 35 35       	xor    $0x35353535,%eax
    7fc2:	35 35 35 35 35       	xor    $0x35353535,%eax
    7fc7:	35 35 35 35 35       	xor    $0x35353535,%eax
    7fcc:	35 35 35 35 35       	xor    $0x35353535,%eax
    7fd1:	35 35 35 35 35       	xor    $0x35353535,%eax
    7fd6:	35 35 35 35 35       	xor    $0x35353535,%eax
    7fdb:	35 35 35 35 35       	xor    $0x35353535,%eax
    7fe0:	35 35 35 35 35       	xor    $0x35353535,%eax
    7fe5:	35 35 35 35 35       	xor    $0x35353535,%eax
    7fea:	35 35 35 35 35       	xor    $0x35353535,%eax
    7fef:	35 35 35 35 35       	xor    $0x35353535,%eax
    7ff4:	35 35 35 35 35       	xor    $0x35353535,%eax
    7ff9:	35 35 35 35 35       	xor    $0x35353535,%eax
    7ffe:	35 35 35 35 35       	xor    $0x35353535,%eax
    8003:	35 35 35 35 35       	xor    $0x35353535,%eax
    8008:	35 35 35 35 35       	xor    $0x35353535,%eax
    800d:	35 35 35 35 35       	xor    $0x35353535,%eax
    8012:	35 35 35 35 35       	xor    $0x35353535,%eax
    8017:	35 35 35 35 35       	xor    $0x35353535,%eax
    801c:	35 35 35 35 35       	xor    $0x35353535,%eax
    8021:	35 35 35 35 35       	xor    $0x35353535,%eax
    8026:	35 35 35 35 35       	xor    $0x35353535,%eax
    802b:	35 35 35 35 35       	xor    $0x35353535,%eax
    8030:	35 35 35 35 35       	xor    $0x35353535,%eax
    8035:	35 35 35 35 35       	xor    $0x35353535,%eax
    803a:	35 35 35 35 35       	xor    $0x35353535,%eax
    803f:	35 35 35 35 35       	xor    $0x35353535,%eax
    8044:	35 35 35 35 35       	xor    $0x35353535,%eax
    8049:	35 35 35 35 35       	xor    $0x35353535,%eax
    804e:	35 35 35 35 35       	xor    $0x35353535,%eax
    8053:	35 35 35 35 35       	xor    $0x35353535,%eax
    8058:	35 35 35 35 35       	xor    $0x35353535,%eax
    805d:	35 35 35 35 35       	xor    $0x35353535,%eax
    8062:	35 35 35 35 35       	xor    $0x35353535,%eax
    8067:	35 35 35 35 35       	xor    $0x35353535,%eax
    806c:	35 35 35 35 35       	xor    $0x35353535,%eax
    8071:	35 35 35 35 35       	xor    $0x35353535,%eax
    8076:	35 35 35 35 35       	xor    $0x35353535,%eax
    807b:	35 35 35 35 35       	xor    $0x35353535,%eax
    8080:	35 35 35 35 35       	xor    $0x35353535,%eax
    8085:	35 35 35 35 35       	xor    $0x35353535,%eax
    808a:	35 35 35 35 35       	xor    $0x35353535,%eax
    808f:	35 35 35 35 35       	xor    $0x35353535,%eax
    8094:	35 35 35 35 35       	xor    $0x35353535,%eax
    8099:	35 35 35 35 35       	xor    $0x35353535,%eax
    809e:	35 35 35 35 35       	xor    $0x35353535,%eax
    80a3:	35 35 35 35 35       	xor    $0x35353535,%eax
    80a8:	35 35 35 35 35       	xor    $0x35353535,%eax
    80ad:	35 35 35 35 35       	xor    $0x35353535,%eax
    80b2:	35 35 35 35 35       	xor    $0x35353535,%eax
    80b7:	35 35 35 35 35       	xor    $0x35353535,%eax
    80bc:	35 35 35 35 35       	xor    $0x35353535,%eax
    80c1:	35 35 35 35 35       	xor    $0x35353535,%eax
    80c6:	35 35 35 35 35       	xor    $0x35353535,%eax
    80cb:	35 35 35 35 35       	xor    $0x35353535,%eax
    80d0:	35 35 35 35 35       	xor    $0x35353535,%eax
    80d5:	35 35 35 35 35       	xor    $0x35353535,%eax
    80da:	35 35 35 35 35       	xor    $0x35353535,%eax
    80df:	35 35 35 35 35       	xor    $0x35353535,%eax
    80e4:	35 35 35 35 35       	xor    $0x35353535,%eax
    80e9:	35 35 35 35 35       	xor    $0x35353535,%eax
    80ee:	35 35 35 35 35       	xor    $0x35353535,%eax
    80f3:	35 35 35 35 35       	xor    $0x35353535,%eax
    80f8:	35 35 35 35 35       	xor    $0x35353535,%eax
    80fd:	35 35 35 35 35       	xor    $0x35353535,%eax
    8102:	35 35 35 35 35       	xor    $0x35353535,%eax
    8107:	35 35 35 35 35       	xor    $0x35353535,%eax
    810c:	35 35 35 35 35       	xor    $0x35353535,%eax
    8111:	35 35 35 35 35       	xor    $0x35353535,%eax
    8116:	35 35 35 35 35       	xor    $0x35353535,%eax
    811b:	35 35 35 35 35       	xor    $0x35353535,%eax
    8120:	35 35 35 35 35       	xor    $0x35353535,%eax
    8125:	35 35 35 35 35       	xor    $0x35353535,%eax
    812a:	35 35 35 35 35       	xor    $0x35353535,%eax
    812f:	35 35 35 35 35       	xor    $0x35353535,%eax
    8134:	35 35 35 35 35       	xor    $0x35353535,%eax
    8139:	35 35 35 35 35       	xor    $0x35353535,%eax
    813e:	35 35 35 35 35       	xor    $0x35353535,%eax
    8143:	35 35 35 35 35       	xor    $0x35353535,%eax
    8148:	35 35 35 35 35       	xor    $0x35353535,%eax
    814d:	35 35 35 35 35       	xor    $0x35353535,%eax
    8152:	35 35 35 35 35       	xor    $0x35353535,%eax
    8157:	35 35 35 35 35       	xor    $0x35353535,%eax
    815c:	35 35 35 35 35       	xor    $0x35353535,%eax
    8161:	35 35 35 35 35       	xor    $0x35353535,%eax
    8166:	35 35 35 35 35       	xor    $0x35353535,%eax
    816b:	35 35 35 35 35       	xor    $0x35353535,%eax
    8170:	35 35 35 35 35       	xor    $0x35353535,%eax
    8175:	35 35 35 35 35       	xor    $0x35353535,%eax
    817a:	35 35 35 35 35       	xor    $0x35353535,%eax
    817f:	35 35 35 35 35       	xor    $0x35353535,%eax
    8184:	35 35 35 35 35       	xor    $0x35353535,%eax
    8189:	35 35 35 35 35       	xor    $0x35353535,%eax
    818e:	35 35 35 35 35       	xor    $0x35353535,%eax
    8193:	35 35 35 35 35       	xor    $0x35353535,%eax
    8198:	35 35 35 35 35       	xor    $0x35353535,%eax
    819d:	35 35 35 35 35       	xor    $0x35353535,%eax
    81a2:	35 35 35 35 35       	xor    $0x35353535,%eax
    81a7:	35 35 35 35 35       	xor    $0x35353535,%eax
    81ac:	35 35 35 35 35       	xor    $0x35353535,%eax
    81b1:	35 35 35 35 35       	xor    $0x35353535,%eax
    81b6:	35 35 35 35 35       	xor    $0x35353535,%eax
    81bb:	35 35 35 35 35       	xor    $0x35353535,%eax
    81c0:	35 35 35 35 35       	xor    $0x35353535,%eax
    81c5:	35 35 35 35 35       	xor    $0x35353535,%eax
    81ca:	35 35 35 35 35       	xor    $0x35353535,%eax
    81cf:	35 35 35 35 35       	xor    $0x35353535,%eax
    81d4:	35 35 35 35 35       	xor    $0x35353535,%eax
    81d9:	35 35 35 35 35       	xor    $0x35353535,%eax
    81de:	35 35 35 35 35       	xor    $0x35353535,%eax
    81e3:	35 35 35 35 35       	xor    $0x35353535,%eax
    81e8:	35 35 35 35 35       	xor    $0x35353535,%eax
    81ed:	35 35 35 35 35       	xor    $0x35353535,%eax
    81f2:	35 35 35 35 35       	xor    $0x35353535,%eax
    81f7:	35 35 35 35 35       	xor    $0x35353535,%eax
    81fc:	35 35 35 35 35       	xor    $0x35353535,%eax
    8201:	35 35 35 35 35       	xor    $0x35353535,%eax
    8206:	35 35 35 35 35       	xor    $0x35353535,%eax
    820b:	35 35 35 35 35       	xor    $0x35353535,%eax
    8210:	35 35 35 35 35       	xor    $0x35353535,%eax
    8215:	35 35 35 35 35       	xor    $0x35353535,%eax
    821a:	35 35 35 35 35       	xor    $0x35353535,%eax
    821f:	35 35 35 35 35       	xor    $0x35353535,%eax
    8224:	35 35 35 35 35       	xor    $0x35353535,%eax
    8229:	35 35 35 35 35       	xor    $0x35353535,%eax
    822e:	35 35 35 35 35       	xor    $0x35353535,%eax
    8233:	35 35 35 35 35       	xor    $0x35353535,%eax
    8238:	35 35 35 35 35       	xor    $0x35353535,%eax
    823d:	35 35 35 35 35       	xor    $0x35353535,%eax
    8242:	35 35 35 35 35       	xor    $0x35353535,%eax
    8247:	35 35 35 35 35       	xor    $0x35353535,%eax
    824c:	35 35 35 35 35       	xor    $0x35353535,%eax
    8251:	35 35 35 35 35       	xor    $0x35353535,%eax
    8256:	35 35 35 35 35       	xor    $0x35353535,%eax
    825b:	35 35 35 35 35       	xor    $0x35353535,%eax
    8260:	35 35 35 35 35       	xor    $0x35353535,%eax
    8265:	35 35 35 35 35       	xor    $0x35353535,%eax
    826a:	35 35 35 35 35       	xor    $0x35353535,%eax
    826f:	35 35 35 35 35       	xor    $0x35353535,%eax
    8274:	35 35 35 35 35       	xor    $0x35353535,%eax
    8279:	35 35 35 35 35       	xor    $0x35353535,%eax
    827e:	35 35 35 35 35       	xor    $0x35353535,%eax
    8283:	35 35 35 35 35       	xor    $0x35353535,%eax
    8288:	35 35 35 35 35       	xor    $0x35353535,%eax
    828d:	35 35 35 35 35       	xor    $0x35353535,%eax
    8292:	35 35 35 35 35       	xor    $0x35353535,%eax
    8297:	35 35 35 35 35       	xor    $0x35353535,%eax
    829c:	35 35 35 35 35       	xor    $0x35353535,%eax
    82a1:	35 35 35 35 35       	xor    $0x35353535,%eax
    82a6:	35 35 35 35 35       	xor    $0x35353535,%eax
    82ab:	35 35 35 35 35       	xor    $0x35353535,%eax
    82b0:	35 35 35 35 35       	xor    $0x35353535,%eax
    82b5:	35 35 35 35 35       	xor    $0x35353535,%eax
    82ba:	35 35 35 35 35       	xor    $0x35353535,%eax
    82bf:	35 35 35 35 35       	xor    $0x35353535,%eax
    82c4:	35 35 35 35 35       	xor    $0x35353535,%eax
    82c9:	35 35 35 35 35       	xor    $0x35353535,%eax
    82ce:	35 35 35 35 35       	xor    $0x35353535,%eax
    82d3:	35 35 35 35 35       	xor    $0x35353535,%eax
    82d8:	35 35 35 35 35       	xor    $0x35353535,%eax
    82dd:	35 35 35 35 35       	xor    $0x35353535,%eax
    82e2:	35 35 35 35 35       	xor    $0x35353535,%eax
    82e7:	35 35 35 35 35       	xor    $0x35353535,%eax
    82ec:	35 35 35 35 35       	xor    $0x35353535,%eax
    82f1:	35 35 35 35 35       	xor    $0x35353535,%eax
    82f6:	35 35 35 35 35       	xor    $0x35353535,%eax
    82fb:	35 35 35 35 35       	xor    $0x35353535,%eax
    8300:	35 35 35 35 35       	xor    $0x35353535,%eax
    8305:	35 35 35 35 35       	xor    $0x35353535,%eax
    830a:	35 35 35 35 35       	xor    $0x35353535,%eax
    830f:	35 35 35 35 35       	xor    $0x35353535,%eax
    8314:	35 35 35 35 35       	xor    $0x35353535,%eax
    8319:	35 35 35 35 35       	xor    $0x35353535,%eax
    831e:	35 35 35 35 35       	xor    $0x35353535,%eax
    8323:	35 35 35 35 35       	xor    $0x35353535,%eax
    8328:	35 35 35 35 35       	xor    $0x35353535,%eax
    832d:	35 35 35 35 35       	xor    $0x35353535,%eax
    8332:	35 35 35 35 35       	xor    $0x35353535,%eax
    8337:	35 35 35 35 35       	xor    $0x35353535,%eax
    833c:	35 35 35 35 35       	xor    $0x35353535,%eax
    8341:	35 35 35 35 35       	xor    $0x35353535,%eax
    8346:	35 35 35 35 35       	xor    $0x35353535,%eax
    834b:	35 35 35 35 35       	xor    $0x35353535,%eax
    8350:	35 35 35 35 35       	xor    $0x35353535,%eax
    8355:	35 35 35 35 35       	xor    $0x35353535,%eax
    835a:	35 35 35 35 35       	xor    $0x35353535,%eax
    835f:	35 35 35 35 35       	xor    $0x35353535,%eax
    8364:	35 35 35 35 35       	xor    $0x35353535,%eax
    8369:	35 35 35 35 35       	xor    $0x35353535,%eax
    836e:	35 35 35 35 35       	xor    $0x35353535,%eax
    8373:	35 35 35 35 35       	xor    $0x35353535,%eax
    8378:	35 35 35 35 35       	xor    $0x35353535,%eax
    837d:	35 35 35 35 35       	xor    $0x35353535,%eax
    8382:	35 35 35 35 35       	xor    $0x35353535,%eax
    8387:	35 35 35 35 35       	xor    $0x35353535,%eax
    838c:	35 35 35 35 35       	xor    $0x35353535,%eax
    8391:	35 35 35 35 35       	xor    $0x35353535,%eax
    8396:	35 35 35 35 35       	xor    $0x35353535,%eax
    839b:	35 35 35 35 35       	xor    $0x35353535,%eax
    83a0:	35 35 35 35 35       	xor    $0x35353535,%eax
    83a5:	35 35 35 35 35       	xor    $0x35353535,%eax
    83aa:	35 35 35 35 35       	xor    $0x35353535,%eax
    83af:	35 35 35 35 35       	xor    $0x35353535,%eax
    83b4:	35 35 35 35 35       	xor    $0x35353535,%eax
    83b9:	35 35 35 35 35       	xor    $0x35353535,%eax
    83be:	35 35 35 35 35       	xor    $0x35353535,%eax
    83c3:	35 35 35 35 35       	xor    $0x35353535,%eax
    83c8:	35 35 35 35 35       	xor    $0x35353535,%eax
    83cd:	35 35 35 35 35       	xor    $0x35353535,%eax
    83d2:	35 35 35 35 35       	xor    $0x35353535,%eax
    83d7:	35 35 35 35 35       	xor    $0x35353535,%eax
    83dc:	35 35 35 35 35       	xor    $0x35353535,%eax
    83e1:	35 35 35 35 35       	xor    $0x35353535,%eax
    83e6:	35 35 35 35 35       	xor    $0x35353535,%eax
    83eb:	35 35 35 35 35       	xor    $0x35353535,%eax
    83f0:	35 35 35 35 35       	xor    $0x35353535,%eax
    83f5:	35 35 35 35 35       	xor    $0x35353535,%eax
    83fa:	35 35 35 35 35       	xor    $0x35353535,%eax
    83ff:	35 35 35 35 35       	xor    $0x35353535,%eax
    8404:	35 35 35 35 35       	xor    $0x35353535,%eax
    8409:	35 35 35 35 35       	xor    $0x35353535,%eax
    840e:	35 35 35 35 35       	xor    $0x35353535,%eax
    8413:	35 35 35 35 35       	xor    $0x35353535,%eax
    8418:	35 35 35 35 35       	xor    $0x35353535,%eax
    841d:	35 35 35 35 35       	xor    $0x35353535,%eax
    8422:	35 35 35 35 35       	xor    $0x35353535,%eax
    8427:	35 35 35 35 35       	xor    $0x35353535,%eax
    842c:	35 35 35 35 35       	xor    $0x35353535,%eax
    8431:	35 35 35 35 35       	xor    $0x35353535,%eax
    8436:	35 35 35 35 35       	xor    $0x35353535,%eax
    843b:	35 35 35 35 35       	xor    $0x35353535,%eax
    8440:	35 35 35 35 35       	xor    $0x35353535,%eax
    8445:	35 35 35 35 35       	xor    $0x35353535,%eax
    844a:	35 35 35 35 35       	xor    $0x35353535,%eax
    844f:	35 35 35 35 35       	xor    $0x35353535,%eax
    8454:	35 35 35 35 35       	xor    $0x35353535,%eax
    8459:	35 35 35 35 35       	xor    $0x35353535,%eax
    845e:	35 35 35 35 35       	xor    $0x35353535,%eax
    8463:	35 35 35 35 35       	xor    $0x35353535,%eax
    8468:	35 35 35 35 35       	xor    $0x35353535,%eax
    846d:	35 35 35 35 35       	xor    $0x35353535,%eax
    8472:	35 35 35 35 35       	xor    $0x35353535,%eax
    8477:	35 35 35 35 35       	xor    $0x35353535,%eax
    847c:	35 35 35 35 35       	xor    $0x35353535,%eax
    8481:	35 35 35 35 35       	xor    $0x35353535,%eax
    8486:	35 35 35 35 35       	xor    $0x35353535,%eax
    848b:	35 35 35 35 35       	xor    $0x35353535,%eax
    8490:	35 35 35 35 35       	xor    $0x35353535,%eax
    8495:	35 35 35 35 35       	xor    $0x35353535,%eax
    849a:	35 35 35 35 35       	xor    $0x35353535,%eax
    849f:	35 35 35 35 35       	xor    $0x35353535,%eax
    84a4:	35 35 35 35 35       	xor    $0x35353535,%eax
    84a9:	35 35 35 35 35       	xor    $0x35353535,%eax
    84ae:	35 35 35 35 35       	xor    $0x35353535,%eax
    84b3:	35 35 35 35 35       	xor    $0x35353535,%eax
    84b8:	35 35 35 35 35       	xor    $0x35353535,%eax
    84bd:	35 35 35 35 35       	xor    $0x35353535,%eax
    84c2:	35 35 35 35 35       	xor    $0x35353535,%eax
    84c7:	35 35 35 35 35       	xor    $0x35353535,%eax
    84cc:	35 35 35 35 35       	xor    $0x35353535,%eax
    84d1:	35 35 35 35 35       	xor    $0x35353535,%eax
    84d6:	35 35 35 35 35       	xor    $0x35353535,%eax
    84db:	35 35 35 35 35       	xor    $0x35353535,%eax
    84e0:	35 35 35 35 35       	xor    $0x35353535,%eax
    84e5:	35 35 35 35 35       	xor    $0x35353535,%eax
    84ea:	35 35 35 35 35       	xor    $0x35353535,%eax
    84ef:	35 35 35 35 35       	xor    $0x35353535,%eax
    84f4:	35 35 35 35 35       	xor    $0x35353535,%eax
    84f9:	35 35 35 35 35       	xor    $0x35353535,%eax
    84fe:	35 35 35 35 35       	xor    $0x35353535,%eax
    8503:	35 35 35 35 35       	xor    $0x35353535,%eax
    8508:	35 35 35 35 35       	xor    $0x35353535,%eax
    850d:	35 35 35 35 35       	xor    $0x35353535,%eax
    8512:	35 35 35 35 35       	xor    $0x35353535,%eax
    8517:	35 35 35 35 35       	xor    $0x35353535,%eax
    851c:	35 35 35 35 35       	xor    $0x35353535,%eax
    8521:	35 35 35 35 35       	xor    $0x35353535,%eax
    8526:	35 35 35 35 35       	xor    $0x35353535,%eax
    852b:	35 35 35 35 35       	xor    $0x35353535,%eax
    8530:	35 35 35 35 35       	xor    $0x35353535,%eax
    8535:	35 35 35 35 35       	xor    $0x35353535,%eax
    853a:	35 35 35 35 35       	xor    $0x35353535,%eax
    853f:	35 35 35 35 35       	xor    $0x35353535,%eax
    8544:	35 35 35 35 35       	xor    $0x35353535,%eax
    8549:	35 35 35 35 35       	xor    $0x35353535,%eax
    854e:	35 35 35 35 35       	xor    $0x35353535,%eax
    8553:	35 35 35 35 35       	xor    $0x35353535,%eax
    8558:	35 35 35 35 35       	xor    $0x35353535,%eax
    855d:	35 35 35 35 35       	xor    $0x35353535,%eax
    8562:	35 35 35 35 35       	xor    $0x35353535,%eax
    8567:	35 35 35 35 35       	xor    $0x35353535,%eax
    856c:	35 35 35 35 35       	xor    $0x35353535,%eax
    8571:	35 35 35 35 35       	xor    $0x35353535,%eax
    8576:	35 35 35 35 35       	xor    $0x35353535,%eax
    857b:	35 35 35 35 35       	xor    $0x35353535,%eax
    8580:	35 35 35 35 35       	xor    $0x35353535,%eax
    8585:	35 35 35 35 35       	xor    $0x35353535,%eax
    858a:	35 35 35 35 35       	xor    $0x35353535,%eax
    858f:	35 35 35 35 35       	xor    $0x35353535,%eax
    8594:	35 35 35 35 35       	xor    $0x35353535,%eax
    8599:	35 35 35 35 35       	xor    $0x35353535,%eax
    859e:	35 35 35 35 35       	xor    $0x35353535,%eax
    85a3:	35 35 35 35 35       	xor    $0x35353535,%eax
    85a8:	35 35 35 35 35       	xor    $0x35353535,%eax
    85ad:	35 35 35 35 35       	xor    $0x35353535,%eax
    85b2:	35 35 35 35 35       	xor    $0x35353535,%eax
    85b7:	35 35 35 35 35       	xor    $0x35353535,%eax
    85bc:	35 35 35 35 35       	xor    $0x35353535,%eax
    85c1:	35 35 35 35 35       	xor    $0x35353535,%eax
    85c6:	35 35 35 35 35       	xor    $0x35353535,%eax
    85cb:	35 35 35 35 35       	xor    $0x35353535,%eax
    85d0:	35 35 35 35 35       	xor    $0x35353535,%eax
    85d5:	35 35 35 35 35       	xor    $0x35353535,%eax
    85da:	35 35 35 35 35       	xor    $0x35353535,%eax
    85df:	35 35 35 35 35       	xor    $0x35353535,%eax
    85e4:	35 35 35 35 35       	xor    $0x35353535,%eax
    85e9:	35 35 35 35 35       	xor    $0x35353535,%eax
    85ee:	35 35 35 35 35       	xor    $0x35353535,%eax
    85f3:	35 35 35 35 35       	xor    $0x35353535,%eax
    85f8:	35 35 35 35 35       	xor    $0x35353535,%eax
    85fd:	35 35 35 35 35       	xor    $0x35353535,%eax
    8602:	35 35 35 35 35       	xor    $0x35353535,%eax
    8607:	35 35 35 35 35       	xor    $0x35353535,%eax
    860c:	35 35 35 35 35       	xor    $0x35353535,%eax
    8611:	35 35 35 35 35       	xor    $0x35353535,%eax
    8616:	35 35 35 35 35       	xor    $0x35353535,%eax
    861b:	35 35 35 35 35       	xor    $0x35353535,%eax
    8620:	35 35 35 35 35       	xor    $0x35353535,%eax
    8625:	35 35 35 35 35       	xor    $0x35353535,%eax
    862a:	35 35 35 35 35       	xor    $0x35353535,%eax
    862f:	35 35 35 35 35       	xor    $0x35353535,%eax
    8634:	35 35 35 35 35       	xor    $0x35353535,%eax
    8639:	35 35 35 35 35       	xor    $0x35353535,%eax
    863e:	35 35 35 35 35       	xor    $0x35353535,%eax
    8643:	35 35 35 35 35       	xor    $0x35353535,%eax
    8648:	35 35 35 35 35       	xor    $0x35353535,%eax
    864d:	35 35 35 35 35       	xor    $0x35353535,%eax
    8652:	35 35 35 35 35       	xor    $0x35353535,%eax
    8657:	35 35 35 35 35       	xor    $0x35353535,%eax
    865c:	35 35 35 35 35       	xor    $0x35353535,%eax
    8661:	35 35 35 35 35       	xor    $0x35353535,%eax
    8666:	35 35 35 35 35       	xor    $0x35353535,%eax
    866b:	35 35 35 35 35       	xor    $0x35353535,%eax
    8670:	35 35 35 35 35       	xor    $0x35353535,%eax
    8675:	35 35 35 35 35       	xor    $0x35353535,%eax
    867a:	35 35 35 35 35       	xor    $0x35353535,%eax
    867f:	35 35 35 35 35       	xor    $0x35353535,%eax
    8684:	35 35 35 35 35       	xor    $0x35353535,%eax
    8689:	35 35 35 35 35       	xor    $0x35353535,%eax
    868e:	35 35 35 35 35       	xor    $0x35353535,%eax
    8693:	35 35 35 35 35       	xor    $0x35353535,%eax
    8698:	35 35 35 35 35       	xor    $0x35353535,%eax
    869d:	35 35 35 35 35       	xor    $0x35353535,%eax
    86a2:	35 35 35 35 35       	xor    $0x35353535,%eax
    86a7:	35 35 35 35 35       	xor    $0x35353535,%eax
    86ac:	35 35 35 35 35       	xor    $0x35353535,%eax
    86b1:	35 35 35 35 35       	xor    $0x35353535,%eax
    86b6:	35 35 35 35 35       	xor    $0x35353535,%eax
    86bb:	35 35 35 35 35       	xor    $0x35353535,%eax
    86c0:	35 35 35 35 35       	xor    $0x35353535,%eax
    86c5:	35 35 35 35 35       	xor    $0x35353535,%eax
    86ca:	35 35 35 35 35       	xor    $0x35353535,%eax
    86cf:	35 35 35 35 35       	xor    $0x35353535,%eax
    86d4:	35 35 35 35 35       	xor    $0x35353535,%eax
    86d9:	35 35 35 35 35       	xor    $0x35353535,%eax
    86de:	35 35 35 35 35       	xor    $0x35353535,%eax
    86e3:	35 35 35 35 35       	xor    $0x35353535,%eax
    86e8:	35 35 35 35 35       	xor    $0x35353535,%eax
    86ed:	35 35 35 35 35       	xor    $0x35353535,%eax
    86f2:	35 35 35 35 35       	xor    $0x35353535,%eax
    86f7:	35 35 35 35 35       	xor    $0x35353535,%eax
    86fc:	35 35 35 35 35       	xor    $0x35353535,%eax
    8701:	35 35 35 35 35       	xor    $0x35353535,%eax
    8706:	35 35 35 35 35       	xor    $0x35353535,%eax
    870b:	35 35 35 35 35       	xor    $0x35353535,%eax
    8710:	35 35 35 35 35       	xor    $0x35353535,%eax
    8715:	35 35 35 35 35       	xor    $0x35353535,%eax
    871a:	35 35 35 35 35       	xor    $0x35353535,%eax
    871f:	35 35 35 35 35       	xor    $0x35353535,%eax
    8724:	35 35 35 35 35       	xor    $0x35353535,%eax
    8729:	35 35 35 35 35       	xor    $0x35353535,%eax
    872e:	35 35 35 35 35       	xor    $0x35353535,%eax
    8733:	35 35 35 35 35       	xor    $0x35353535,%eax
    8738:	35 35 35 35 35       	xor    $0x35353535,%eax
    873d:	35 35 35 35 35       	xor    $0x35353535,%eax
    8742:	35 35 35 35 35       	xor    $0x35353535,%eax
    8747:	35 35 35 35 35       	xor    $0x35353535,%eax
    874c:	35 35 35 35 35       	xor    $0x35353535,%eax
    8751:	35 35 35 35 35       	xor    $0x35353535,%eax
    8756:	35 35 35 35 35       	xor    $0x35353535,%eax
    875b:	35 35 35 35 35       	xor    $0x35353535,%eax
    8760:	35 35 35 35 35       	xor    $0x35353535,%eax
    8765:	35 35 35 35 35       	xor    $0x35353535,%eax
    876a:	35 35 35 35 35       	xor    $0x35353535,%eax
    876f:	35 35 35 35 35       	xor    $0x35353535,%eax
    8774:	35 35 35 35 35       	xor    $0x35353535,%eax
    8779:	35 35 35 35 35       	xor    $0x35353535,%eax
    877e:	35 35 35 35 35       	xor    $0x35353535,%eax
    8783:	35 35 35 35 35       	xor    $0x35353535,%eax
    8788:	35 35 35 35 35       	xor    $0x35353535,%eax
    878d:	35 35 35 35 35       	xor    $0x35353535,%eax
    8792:	35 35 35 35 35       	xor    $0x35353535,%eax
    8797:	35 35 35 35 35       	xor    $0x35353535,%eax
    879c:	35 35 35 35 35       	xor    $0x35353535,%eax
    87a1:	35 35 35 35 35       	xor    $0x35353535,%eax
    87a6:	35 35 35 35 35       	xor    $0x35353535,%eax
    87ab:	35 35 35 35 35       	xor    $0x35353535,%eax
    87b0:	35 35 35 35 35       	xor    $0x35353535,%eax
    87b5:	35 35 35 35 35       	xor    $0x35353535,%eax
    87ba:	35 35 35 35 35       	xor    $0x35353535,%eax
    87bf:	35 35 35 35 35       	xor    $0x35353535,%eax
    87c4:	35 35 35 35 35       	xor    $0x35353535,%eax
    87c9:	35 35 35 35 35       	xor    $0x35353535,%eax
    87ce:	35 35 35 35 35       	xor    $0x35353535,%eax
    87d3:	35 35 35 35 35       	xor    $0x35353535,%eax
    87d8:	35 35 35 35 35       	xor    $0x35353535,%eax
    87dd:	35 35 35 35 35       	xor    $0x35353535,%eax
    87e2:	35 35 35 35 35       	xor    $0x35353535,%eax
    87e7:	35 35 35 35 35       	xor    $0x35353535,%eax
    87ec:	35 35 35 35 35       	xor    $0x35353535,%eax
    87f1:	35 35 35 35 35       	xor    $0x35353535,%eax
    87f6:	35 35 35 35 35       	xor    $0x35353535,%eax
    87fb:	35 35 35 35 35       	xor    $0x35353535,%eax
    8800:	35 35 35 35 35       	xor    $0x35353535,%eax
    8805:	35 35 35 35 35       	xor    $0x35353535,%eax
    880a:	35 35 35 35 35       	xor    $0x35353535,%eax
    880f:	35 35 35 35 35       	xor    $0x35353535,%eax
    8814:	35 35 35 35 35       	xor    $0x35353535,%eax
    8819:	35 35 35 35 35       	xor    $0x35353535,%eax
    881e:	35 35 35 35 35       	xor    $0x35353535,%eax
    8823:	35 35 35 35 35       	xor    $0x35353535,%eax
    8828:	35 35 35 35 35       	xor    $0x35353535,%eax
    882d:	35 35 35 35 35       	xor    $0x35353535,%eax
    8832:	35 35 35 35 35       	xor    $0x35353535,%eax
    8837:	35 35 35 35 35       	xor    $0x35353535,%eax
    883c:	35 35 35 35 35       	xor    $0x35353535,%eax
    8841:	35 35 35 35 35       	xor    $0x35353535,%eax
    8846:	35 35 35 35 35       	xor    $0x35353535,%eax
    884b:	35 35 35 35 35       	xor    $0x35353535,%eax
    8850:	35 35 35 35 35       	xor    $0x35353535,%eax
    8855:	35 35 35 35 35       	xor    $0x35353535,%eax
    885a:	35 35 35 35 35       	xor    $0x35353535,%eax
    885f:	35 35 35 35 35       	xor    $0x35353535,%eax
    8864:	35 35 35 35 35       	xor    $0x35353535,%eax
    8869:	35 35 35 35 35       	xor    $0x35353535,%eax
    886e:	35 35 35 35 35       	xor    $0x35353535,%eax
    8873:	35 35 35 35 35       	xor    $0x35353535,%eax
    8878:	35 35 35 35 35       	xor    $0x35353535,%eax
    887d:	35 35 35 35 35       	xor    $0x35353535,%eax
    8882:	35 35 35 35 35       	xor    $0x35353535,%eax
    8887:	35 35 35 35 35       	xor    $0x35353535,%eax
    888c:	35 35 35 35 35       	xor    $0x35353535,%eax
    8891:	35 35 35 35 35       	xor    $0x35353535,%eax
    8896:	35 35 35 35 35       	xor    $0x35353535,%eax
    889b:	35 35 35 35 35       	xor    $0x35353535,%eax
    88a0:	35 35 35 35 35       	xor    $0x35353535,%eax
    88a5:	35 35 35 35 35       	xor    $0x35353535,%eax
    88aa:	35 35 35 35 35       	xor    $0x35353535,%eax
    88af:	35 35 35 35 35       	xor    $0x35353535,%eax
    88b4:	35 35 35 35 35       	xor    $0x35353535,%eax
    88b9:	35 35 35 35 35       	xor    $0x35353535,%eax
    88be:	35 35 35 35 35       	xor    $0x35353535,%eax
    88c3:	35 35 35 35 35       	xor    $0x35353535,%eax
    88c8:	35 35 35 35 35       	xor    $0x35353535,%eax
    88cd:	35 35 35 35 35       	xor    $0x35353535,%eax
    88d2:	35 35 35 35 35       	xor    $0x35353535,%eax
    88d7:	35 35 35 35 35       	xor    $0x35353535,%eax
    88dc:	35 35 35 35 35       	xor    $0x35353535,%eax
    88e1:	35 35 35 35 35       	xor    $0x35353535,%eax
    88e6:	35 35 35 35 35       	xor    $0x35353535,%eax
    88eb:	35 35 35 35 35       	xor    $0x35353535,%eax
    88f0:	35 35 35 35 35       	xor    $0x35353535,%eax
    88f5:	35 35 35 35 35       	xor    $0x35353535,%eax
    88fa:	35 35 35 35 35       	xor    $0x35353535,%eax
    88ff:	35 35 35 35 35       	xor    $0x35353535,%eax
    8904:	35 35 35 35 35       	xor    $0x35353535,%eax
    8909:	35 35 35 35 35       	xor    $0x35353535,%eax
    890e:	35 35 35 35 35       	xor    $0x35353535,%eax
    8913:	35 35 35 35 35       	xor    $0x35353535,%eax
    8918:	35 35 35 35 35       	xor    $0x35353535,%eax
    891d:	35 35 35 35 35       	xor    $0x35353535,%eax
    8922:	35 35 35 35 35       	xor    $0x35353535,%eax
    8927:	35 35 35 35 35       	xor    $0x35353535,%eax
    892c:	35 35 35 35 35       	xor    $0x35353535,%eax
    8931:	35 35 35 35 35       	xor    $0x35353535,%eax
    8936:	35 35 35 35 35       	xor    $0x35353535,%eax
    893b:	35 35 35 35 35       	xor    $0x35353535,%eax
    8940:	35 35 35 35 35       	xor    $0x35353535,%eax
    8945:	35 35 35 35 35       	xor    $0x35353535,%eax
    894a:	35 35 35 35 35       	xor    $0x35353535,%eax
    894f:	35 35 35 35 35       	xor    $0x35353535,%eax
    8954:	35 35 35 35 35       	xor    $0x35353535,%eax
    8959:	35 35 35 35 35       	xor    $0x35353535,%eax
    895e:	35 35 35 35 35       	xor    $0x35353535,%eax
    8963:	35 35 35 35 35       	xor    $0x35353535,%eax
    8968:	35 35 35 35 35       	xor    $0x35353535,%eax
    896d:	35 35 35 35 35       	xor    $0x35353535,%eax
    8972:	35 35 35 35 35       	xor    $0x35353535,%eax
    8977:	35 35 35 35 35       	xor    $0x35353535,%eax
    897c:	35 35 35 35 35       	xor    $0x35353535,%eax
    8981:	35 35 35 35 35       	xor    $0x35353535,%eax
    8986:	35 35 35 35 35       	xor    $0x35353535,%eax
    898b:	35 35 35 35 35       	xor    $0x35353535,%eax
    8990:	35 35 35 35 35       	xor    $0x35353535,%eax
    8995:	35 35 35 35 35       	xor    $0x35353535,%eax
    899a:	35 35 35 35 35       	xor    $0x35353535,%eax
    899f:	35 35 35 35 35       	xor    $0x35353535,%eax
    89a4:	35 35 35 35 35       	xor    $0x35353535,%eax
    89a9:	35 35 35 35 35       	xor    $0x35353535,%eax
    89ae:	35 35 35 35 35       	xor    $0x35353535,%eax
    89b3:	35 35 35 35 35       	xor    $0x35353535,%eax
    89b8:	35 35 35 35 35       	xor    $0x35353535,%eax
    89bd:	35 35 35 35 35       	xor    $0x35353535,%eax
    89c2:	35 35 35 35 35       	xor    $0x35353535,%eax
    89c7:	35 35 35 35 35       	xor    $0x35353535,%eax
    89cc:	35 35 35 35 35       	xor    $0x35353535,%eax
    89d1:	35 35 35 35 35       	xor    $0x35353535,%eax
    89d6:	35 35 35 35 35       	xor    $0x35353535,%eax
    89db:	35 35 35 35 35       	xor    $0x35353535,%eax
    89e0:	35 35 35 35 35       	xor    $0x35353535,%eax
    89e5:	35 35 35 35 35       	xor    $0x35353535,%eax
    89ea:	35 35 35 35 35       	xor    $0x35353535,%eax
    89ef:	35 35 35 35 35       	xor    $0x35353535,%eax
    89f4:	35 35 35 35 35       	xor    $0x35353535,%eax
    89f9:	35 35 35 35 35       	xor    $0x35353535,%eax
    89fe:	35 35 35 35 35       	xor    $0x35353535,%eax
    8a03:	35 35 35 35 35       	xor    $0x35353535,%eax
    8a08:	35 35 35 35 35       	xor    $0x35353535,%eax
    8a0d:	35 35 35 35 35       	xor    $0x35353535,%eax
    8a12:	35 35 35 35 35       	xor    $0x35353535,%eax
    8a17:	35 35 35 35 35       	xor    $0x35353535,%eax
    8a1c:	35 35 35 35 35       	xor    $0x35353535,%eax
    8a21:	35 35 35 35 35       	xor    $0x35353535,%eax
    8a26:	35 35 35 35 35       	xor    $0x35353535,%eax
    8a2b:	35 35 35 35 35       	xor    $0x35353535,%eax
    8a30:	35 35 35 35 35       	xor    $0x35353535,%eax
    8a35:	35 35 35 35 35       	xor    $0x35353535,%eax
    8a3a:	35 35 35 35 35       	xor    $0x35353535,%eax
    8a3f:	35 35 35 35 35       	xor    $0x35353535,%eax
    8a44:	35 35 35 35 35       	xor    $0x35353535,%eax
    8a49:	35 35 35 35 35       	xor    $0x35353535,%eax
    8a4e:	35 35 35 35 35       	xor    $0x35353535,%eax
    8a53:	35 35 35 35 35       	xor    $0x35353535,%eax
    8a58:	35 35 35 35 35       	xor    $0x35353535,%eax
    8a5d:	35 35 35 35 35       	xor    $0x35353535,%eax
    8a62:	35 35 35 35 35       	xor    $0x35353535,%eax
    8a67:	35 35 35 35 35       	xor    $0x35353535,%eax
    8a6c:	35 35 35 35 35       	xor    $0x35353535,%eax
    8a71:	35 35 35 35 35       	xor    $0x35353535,%eax
    8a76:	35 35 35 35 35       	xor    $0x35353535,%eax
    8a7b:	35 35 35 35 35       	xor    $0x35353535,%eax
    8a80:	35 35 35 35 35       	xor    $0x35353535,%eax
    8a85:	35 35 35 35 35       	xor    $0x35353535,%eax
    8a8a:	35 35 35 35 35       	xor    $0x35353535,%eax
    8a8f:	35 35 35 35 35       	xor    $0x35353535,%eax
    8a94:	35 35 35 35 35       	xor    $0x35353535,%eax
    8a99:	35 35 35 35 35       	xor    $0x35353535,%eax
    8a9e:	35 35 35 35 35       	xor    $0x35353535,%eax
    8aa3:	35 35 35 35 35       	xor    $0x35353535,%eax
    8aa8:	35 35 35 35 35       	xor    $0x35353535,%eax
    8aad:	35 35 35 35 35       	xor    $0x35353535,%eax
    8ab2:	35 35 35 35 35       	xor    $0x35353535,%eax
    8ab7:	35 35 35 35 35       	xor    $0x35353535,%eax
    8abc:	35 35 35 35 35       	xor    $0x35353535,%eax
    8ac1:	35 35 35 35 35       	xor    $0x35353535,%eax
    8ac6:	35 35 35 35 35       	xor    $0x35353535,%eax
    8acb:	35 35 35 35 35       	xor    $0x35353535,%eax
    8ad0:	35 35 35 35 35       	xor    $0x35353535,%eax
    8ad5:	35 35 35 35 35       	xor    $0x35353535,%eax
    8ada:	35 35 35 35 35       	xor    $0x35353535,%eax
    8adf:	35 35 35 35 35       	xor    $0x35353535,%eax
    8ae4:	35 35 35 35 35       	xor    $0x35353535,%eax
    8ae9:	35 35 35 35 35       	xor    $0x35353535,%eax
    8aee:	35 35 35 35 35       	xor    $0x35353535,%eax
    8af3:	35 35 35 35 35       	xor    $0x35353535,%eax
    8af8:	35 35 35 35 35       	xor    $0x35353535,%eax
    8afd:	35 35 35 35 35       	xor    $0x35353535,%eax
    8b02:	35 35 35 35 35       	xor    $0x35353535,%eax
    8b07:	35 35 35 35 35       	xor    $0x35353535,%eax
    8b0c:	35 35 35 35 35       	xor    $0x35353535,%eax
    8b11:	35 35 35 35 35       	xor    $0x35353535,%eax
    8b16:	35 35 35 35 35       	xor    $0x35353535,%eax
    8b1b:	35 35 35 35 35       	xor    $0x35353535,%eax
    8b20:	35 35 35 35 35       	xor    $0x35353535,%eax
    8b25:	35 35 35 35 35       	xor    $0x35353535,%eax
    8b2a:	35 35 35 35 35       	xor    $0x35353535,%eax
    8b2f:	35 35 35 35 35       	xor    $0x35353535,%eax
    8b34:	35 35 35 35 35       	xor    $0x35353535,%eax
    8b39:	35 35 35 35 35       	xor    $0x35353535,%eax
    8b3e:	35 35 35 35 35       	xor    $0x35353535,%eax
    8b43:	35 35 35 35 35       	xor    $0x35353535,%eax
    8b48:	35 35 35 35 35       	xor    $0x35353535,%eax
    8b4d:	35 35 35 35 35       	xor    $0x35353535,%eax
    8b52:	35 35 35 35 35       	xor    $0x35353535,%eax
    8b57:	35 35 35 35 35       	xor    $0x35353535,%eax
    8b5c:	35 35 35 35 35       	xor    $0x35353535,%eax
    8b61:	35 35 35 35 35       	xor    $0x35353535,%eax
    8b66:	35 35 35 35 35       	xor    $0x35353535,%eax
    8b6b:	35 35 35 35 35       	xor    $0x35353535,%eax
    8b70:	35 35 35 35 35       	xor    $0x35353535,%eax
    8b75:	35 35 35 35 35       	xor    $0x35353535,%eax
    8b7a:	35 35 35 35 35       	xor    $0x35353535,%eax
    8b7f:	35 35 35 35 35       	xor    $0x35353535,%eax
    8b84:	35 35 35 35 35       	xor    $0x35353535,%eax
    8b89:	35 35 35 35 35       	xor    $0x35353535,%eax
    8b8e:	35 35 35 35 35       	xor    $0x35353535,%eax
    8b93:	35 35 35 35 35       	xor    $0x35353535,%eax
    8b98:	35 35 35 35 35       	xor    $0x35353535,%eax
    8b9d:	35 35 35 35 35       	xor    $0x35353535,%eax
    8ba2:	35 35 35 35 35       	xor    $0x35353535,%eax
    8ba7:	35 35 35 35 35       	xor    $0x35353535,%eax
    8bac:	35 35 35 35 35       	xor    $0x35353535,%eax
    8bb1:	35 35 35 35 35       	xor    $0x35353535,%eax
    8bb6:	35 35 35 35 35       	xor    $0x35353535,%eax
    8bbb:	35 35 35 35 35       	xor    $0x35353535,%eax
    8bc0:	35 35 35 35 35       	xor    $0x35353535,%eax
    8bc5:	35 35 35 35 35       	xor    $0x35353535,%eax
    8bca:	35 35 35 35 35       	xor    $0x35353535,%eax
    8bcf:	35 35 35 35 35       	xor    $0x35353535,%eax
    8bd4:	35 35 35 35 35       	xor    $0x35353535,%eax
    8bd9:	35 35 35 35 35       	xor    $0x35353535,%eax
    8bde:	35 35 35 35 35       	xor    $0x35353535,%eax
    8be3:	35 35 35 35 35       	xor    $0x35353535,%eax
    8be8:	35 35 35 35 35       	xor    $0x35353535,%eax
    8bed:	35 35 35 35 35       	xor    $0x35353535,%eax
    8bf2:	35 35 35 35 35       	xor    $0x35353535,%eax
    8bf7:	35 35 35 35 35       	xor    $0x35353535,%eax
    8bfc:	35 35 35 35 35       	xor    $0x35353535,%eax
    8c01:	35 35 35 35 35       	xor    $0x35353535,%eax
    8c06:	35 35 35 35 35       	xor    $0x35353535,%eax
    8c0b:	35 35 35 35 35       	xor    $0x35353535,%eax
    8c10:	35 35 35 35 35       	xor    $0x35353535,%eax
    8c15:	35 35 35 35 35       	xor    $0x35353535,%eax
    8c1a:	35 35 35 35 35       	xor    $0x35353535,%eax
    8c1f:	35 35 35 35 35       	xor    $0x35353535,%eax
    8c24:	35 35 35 35 35       	xor    $0x35353535,%eax
    8c29:	35 35 35 35 35       	xor    $0x35353535,%eax
    8c2e:	35 35 35 35 35       	xor    $0x35353535,%eax
    8c33:	35 35 35 35 35       	xor    $0x35353535,%eax
    8c38:	35 35 35 35 35       	xor    $0x35353535,%eax
    8c3d:	35 35 35 35 35       	xor    $0x35353535,%eax
    8c42:	35 35 35 35 35       	xor    $0x35353535,%eax
    8c47:	35 35 35 35 35       	xor    $0x35353535,%eax
    8c4c:	35 35 35 35 35       	xor    $0x35353535,%eax
    8c51:	35 35 35 35 35       	xor    $0x35353535,%eax
    8c56:	35 35 35 35 35       	xor    $0x35353535,%eax
    8c5b:	35 35 35 35 35       	xor    $0x35353535,%eax
    8c60:	35 35 35 35 35       	xor    $0x35353535,%eax
    8c65:	35 35 35 35 35       	xor    $0x35353535,%eax
    8c6a:	35 35 35 35 35       	xor    $0x35353535,%eax
    8c6f:	35 35 35 35 35       	xor    $0x35353535,%eax
    8c74:	35 35 35 35 35       	xor    $0x35353535,%eax
    8c79:	35 35 35 35 35       	xor    $0x35353535,%eax
    8c7e:	35 35 35 35 35       	xor    $0x35353535,%eax
    8c83:	35 35 35 35 35       	xor    $0x35353535,%eax
    8c88:	35 35 35 35 35       	xor    $0x35353535,%eax
    8c8d:	35 35 35 35 35       	xor    $0x35353535,%eax
    8c92:	35 35 35 35 35       	xor    $0x35353535,%eax
    8c97:	35 35 35 35 35       	xor    $0x35353535,%eax
    8c9c:	35 35 35 35 35       	xor    $0x35353535,%eax
    8ca1:	35 35 35 35 35       	xor    $0x35353535,%eax
    8ca6:	35 35 35 35 35       	xor    $0x35353535,%eax
    8cab:	35 35 35 35 35       	xor    $0x35353535,%eax
    8cb0:	35 35 35 35 35       	xor    $0x35353535,%eax
    8cb5:	35 35 35 35 35       	xor    $0x35353535,%eax
    8cba:	35 35 35 35 35       	xor    $0x35353535,%eax
    8cbf:	35 35 35 35 35       	xor    $0x35353535,%eax
    8cc4:	35 35 35 35 35       	xor    $0x35353535,%eax
    8cc9:	35 35 35 35 35       	xor    $0x35353535,%eax
    8cce:	35 35 35 35 35       	xor    $0x35353535,%eax
    8cd3:	35 35 35 35 35       	xor    $0x35353535,%eax
    8cd8:	35 35 35 35 35       	xor    $0x35353535,%eax
    8cdd:	35 35 35 35 35       	xor    $0x35353535,%eax
    8ce2:	35 35 35 35 35       	xor    $0x35353535,%eax
    8ce7:	35 35 35 35 35       	xor    $0x35353535,%eax
    8cec:	35 35 35 35 35       	xor    $0x35353535,%eax
    8cf1:	35 35 35 35 35       	xor    $0x35353535,%eax
    8cf6:	35 35 35 35 35       	xor    $0x35353535,%eax
    8cfb:	35 35 35 35 35       	xor    $0x35353535,%eax
    8d00:	35 35 35 35 35       	xor    $0x35353535,%eax
    8d05:	35 35 35 35 35       	xor    $0x35353535,%eax
    8d0a:	35 35 35 35 35       	xor    $0x35353535,%eax
    8d0f:	35 35 35 35 35       	xor    $0x35353535,%eax
    8d14:	35 35 35 35 35       	xor    $0x35353535,%eax
    8d19:	35 35 35 35 35       	xor    $0x35353535,%eax
    8d1e:	35 35 35 35 35       	xor    $0x35353535,%eax
    8d23:	35 35 35 35 35       	xor    $0x35353535,%eax
    8d28:	35 35 35 35 35       	xor    $0x35353535,%eax
    8d2d:	35 35 35 35 35       	xor    $0x35353535,%eax
    8d32:	35 35 35 35 35       	xor    $0x35353535,%eax
    8d37:	35 35 35 35 35       	xor    $0x35353535,%eax
    8d3c:	35 35 35 35 35       	xor    $0x35353535,%eax
    8d41:	35 35 35 35 35       	xor    $0x35353535,%eax
    8d46:	35 35 35 35 35       	xor    $0x35353535,%eax
    8d4b:	35 35 35 35 35       	xor    $0x35353535,%eax
    8d50:	35 35 35 35 35       	xor    $0x35353535,%eax
    8d55:	35 35 35 35 35       	xor    $0x35353535,%eax
    8d5a:	35 35 35 35 35       	xor    $0x35353535,%eax
    8d5f:	35 35 35 35 35       	xor    $0x35353535,%eax
    8d64:	35 35 35 35 35       	xor    $0x35353535,%eax
    8d69:	35 35 35 35 35       	xor    $0x35353535,%eax
    8d6e:	35 35 35 35 35       	xor    $0x35353535,%eax
    8d73:	35 35 35 35 35       	xor    $0x35353535,%eax
    8d78:	35 35 35 35 35       	xor    $0x35353535,%eax
    8d7d:	35 35 35 35 35       	xor    $0x35353535,%eax
    8d82:	35 35 35 35 35       	xor    $0x35353535,%eax
    8d87:	35 35 35 35 35       	xor    $0x35353535,%eax
    8d8c:	35 35 35 35 35       	xor    $0x35353535,%eax
    8d91:	35 35 35 35 35       	xor    $0x35353535,%eax
    8d96:	35 35 35 35 35       	xor    $0x35353535,%eax
    8d9b:	35 35 35 35 35       	xor    $0x35353535,%eax
    8da0:	35 35 35 35 35       	xor    $0x35353535,%eax
    8da5:	35 35 35 35 35       	xor    $0x35353535,%eax
    8daa:	35 35 35 35 35       	xor    $0x35353535,%eax
    8daf:	35 35 35 35 35       	xor    $0x35353535,%eax
    8db4:	35 35 35 35 35       	xor    $0x35353535,%eax
    8db9:	35 35 35 35 35       	xor    $0x35353535,%eax
    8dbe:	35 35 35 35 35       	xor    $0x35353535,%eax
    8dc3:	35 35 35 35 35       	xor    $0x35353535,%eax
    8dc8:	35 35 35 35 35       	xor    $0x35353535,%eax
    8dcd:	35 35 35 35 35       	xor    $0x35353535,%eax
    8dd2:	35 35 35 35 35       	xor    $0x35353535,%eax
    8dd7:	35 35 35 35 35       	xor    $0x35353535,%eax
    8ddc:	35 35 35 35 35       	xor    $0x35353535,%eax
    8de1:	35 35 35 35 35       	xor    $0x35353535,%eax
    8de6:	35 35 35 35 35       	xor    $0x35353535,%eax
    8deb:	35 35 35 35 35       	xor    $0x35353535,%eax
    8df0:	35 35 35 35 35       	xor    $0x35353535,%eax
    8df5:	35 35 35 35 35       	xor    $0x35353535,%eax
    8dfa:	35 35 35 35 35       	xor    $0x35353535,%eax
    8dff:	35 35 35 35 35       	xor    $0x35353535,%eax
    8e04:	35 35 35 35 35       	xor    $0x35353535,%eax
    8e09:	35 35 35 35 35       	xor    $0x35353535,%eax
    8e0e:	35 35 35 35 35       	xor    $0x35353535,%eax
    8e13:	35 35 35 35 35       	xor    $0x35353535,%eax
    8e18:	35 35 35 35 35       	xor    $0x35353535,%eax
    8e1d:	35 35 35 35 35       	xor    $0x35353535,%eax
    8e22:	35 35 35 35 35       	xor    $0x35353535,%eax
    8e27:	35 35 35 35 35       	xor    $0x35353535,%eax
    8e2c:	35 35 35 35 35       	xor    $0x35353535,%eax
    8e31:	35 35 35 35 35       	xor    $0x35353535,%eax
    8e36:	35 35 35 35 35       	xor    $0x35353535,%eax
    8e3b:	35 35 35 35 35       	xor    $0x35353535,%eax
    8e40:	35 35 35 35 35       	xor    $0x35353535,%eax
    8e45:	35 35 35 35 35       	xor    $0x35353535,%eax
    8e4a:	35 35 35 35 35       	xor    $0x35353535,%eax
    8e4f:	35 35 35 35 35       	xor    $0x35353535,%eax
    8e54:	35 35 35 35 35       	xor    $0x35353535,%eax
    8e59:	35 35 35 35 35       	xor    $0x35353535,%eax
    8e5e:	35 35 35 35 35       	xor    $0x35353535,%eax
    8e63:	35 35 35 35 35       	xor    $0x35353535,%eax
    8e68:	35 35 35 35 35       	xor    $0x35353535,%eax
    8e6d:	35 35 35 35 35       	xor    $0x35353535,%eax
    8e72:	35 35 35 35 35       	xor    $0x35353535,%eax
    8e77:	35 35 35 35 35       	xor    $0x35353535,%eax
    8e7c:	35 35 35 35 35       	xor    $0x35353535,%eax
    8e81:	35 35 35 35 35       	xor    $0x35353535,%eax
    8e86:	35 35 35 35 35       	xor    $0x35353535,%eax
    8e8b:	35 35 35 35 35       	xor    $0x35353535,%eax
    8e90:	35 35 35 35 35       	xor    $0x35353535,%eax
    8e95:	35 35 35 35 35       	xor    $0x35353535,%eax
    8e9a:	35 35 35 35 35       	xor    $0x35353535,%eax
    8e9f:	35 35 35 35 35       	xor    $0x35353535,%eax
    8ea4:	35 35 35 35 35       	xor    $0x35353535,%eax
    8ea9:	35 35 35 35 35       	xor    $0x35353535,%eax
    8eae:	35 35 35 35 35       	xor    $0x35353535,%eax
    8eb3:	35 35 35 35 35       	xor    $0x35353535,%eax
    8eb8:	35 35 35 35 35       	xor    $0x35353535,%eax
    8ebd:	35 35 35 35 35       	xor    $0x35353535,%eax
    8ec2:	35 35 35 35 35       	xor    $0x35353535,%eax
    8ec7:	35 35 35 35 35       	xor    $0x35353535,%eax
    8ecc:	35 35 35 35 35       	xor    $0x35353535,%eax
    8ed1:	35 35 35 35 35       	xor    $0x35353535,%eax
    8ed6:	35 35 35 35 35       	xor    $0x35353535,%eax
    8edb:	35 35 35 35 35       	xor    $0x35353535,%eax
    8ee0:	35 35 35 35 35       	xor    $0x35353535,%eax
    8ee5:	35 35 35 35 35       	xor    $0x35353535,%eax
    8eea:	35 35 35 35 35       	xor    $0x35353535,%eax
    8eef:	35 35 35 35 35       	xor    $0x35353535,%eax
    8ef4:	35 35 35 35 35       	xor    $0x35353535,%eax
    8ef9:	35 35 35 35 35       	xor    $0x35353535,%eax
    8efe:	35 35 35 35 35       	xor    $0x35353535,%eax
    8f03:	35 35 35 35 35       	xor    $0x35353535,%eax
    8f08:	35 35 35 35 35       	xor    $0x35353535,%eax
    8f0d:	35 35 35 35 35       	xor    $0x35353535,%eax
    8f12:	35 35 35 35 35       	xor    $0x35353535,%eax
    8f17:	35 35 35 35 35       	xor    $0x35353535,%eax
    8f1c:	35 35 35 35 35       	xor    $0x35353535,%eax
    8f21:	35 35 35 35 35       	xor    $0x35353535,%eax
    8f26:	35 35 35 35 35       	xor    $0x35353535,%eax
    8f2b:	35 35 35 35 35       	xor    $0x35353535,%eax
    8f30:	35 35 35 35 35       	xor    $0x35353535,%eax
    8f35:	35 35 35 35 35       	xor    $0x35353535,%eax
    8f3a:	35 35 35 35 35       	xor    $0x35353535,%eax
    8f3f:	35 35 35 35 35       	xor    $0x35353535,%eax
    8f44:	35 35 35 35 35       	xor    $0x35353535,%eax
    8f49:	35 35 35 35 35       	xor    $0x35353535,%eax
    8f4e:	35 35 35 35 35       	xor    $0x35353535,%eax
    8f53:	35 35 35 35 35       	xor    $0x35353535,%eax
    8f58:	35 35 35 35 35       	xor    $0x35353535,%eax
    8f5d:	35 35 35 35 35       	xor    $0x35353535,%eax
    8f62:	35 35 35 35 35       	xor    $0x35353535,%eax
    8f67:	35 35 35 35 35       	xor    $0x35353535,%eax
    8f6c:	35 35 35 35 35       	xor    $0x35353535,%eax
    8f71:	35 35 35 35 35       	xor    $0x35353535,%eax
    8f76:	35 35 35 35 35       	xor    $0x35353535,%eax
    8f7b:	35 35 35 35 35       	xor    $0x35353535,%eax
    8f80:	35 35 35 35 35       	xor    $0x35353535,%eax
    8f85:	35 35 35 35 35       	xor    $0x35353535,%eax
    8f8a:	35 35 35 35 35       	xor    $0x35353535,%eax
    8f8f:	35 35 35 35 35       	xor    $0x35353535,%eax
    8f94:	35 35 35 35 35       	xor    $0x35353535,%eax
    8f99:	35 35 35 35 35       	xor    $0x35353535,%eax
    8f9e:	35 35 35 35 35       	xor    $0x35353535,%eax
    8fa3:	35 35 35 35 35       	xor    $0x35353535,%eax
    8fa8:	35 35 35 35 35       	xor    $0x35353535,%eax
    8fad:	35 35 35 35 35       	xor    $0x35353535,%eax
    8fb2:	35 35 35 35 35       	xor    $0x35353535,%eax
    8fb7:	35 35 35 35 35       	xor    $0x35353535,%eax
    8fbc:	35 35 35 35 35       	xor    $0x35353535,%eax
    8fc1:	35 35 35 35 35       	xor    $0x35353535,%eax
    8fc6:	35 35 35 35 35       	xor    $0x35353535,%eax
    8fcb:	35 35 35 35 35       	xor    $0x35353535,%eax
    8fd0:	35 35 35 35 35       	xor    $0x35353535,%eax
    8fd5:	35 35 35 35 35       	xor    $0x35353535,%eax
    8fda:	35 35 35 35 35       	xor    $0x35353535,%eax
    8fdf:	35 35 35 35 35       	xor    $0x35353535,%eax
    8fe4:	35 35 35 35 35       	xor    $0x35353535,%eax
    8fe9:	35 35 35 35 35       	xor    $0x35353535,%eax
    8fee:	35 35 35 35 35       	xor    $0x35353535,%eax
    8ff3:	35 35 35 35 35       	xor    $0x35353535,%eax
    8ff8:	35 35 35 35 35       	xor    $0x35353535,%eax
    8ffd:	35 35 35 35 35       	xor    $0x35353535,%eax
    9002:	35 35 35 35 35       	xor    $0x35353535,%eax
    9007:	35 35 35 35 35       	xor    $0x35353535,%eax
    900c:	35 35 35 35 35       	xor    $0x35353535,%eax
    9011:	35 35 35 35 35       	xor    $0x35353535,%eax
    9016:	35 35 35 35 35       	xor    $0x35353535,%eax
    901b:	35 35 35 35 35       	xor    $0x35353535,%eax
    9020:	35 35 35 35 35       	xor    $0x35353535,%eax
    9025:	35 35 35 35 35       	xor    $0x35353535,%eax
    902a:	35 35 35 35 35       	xor    $0x35353535,%eax
    902f:	35 35 35 35 35       	xor    $0x35353535,%eax
    9034:	35 35 35 35 35       	xor    $0x35353535,%eax
    9039:	35 35 35 35 35       	xor    $0x35353535,%eax
    903e:	35 35 35 35 35       	xor    $0x35353535,%eax
    9043:	35 35 35 35 35       	xor    $0x35353535,%eax
    9048:	35 35 35 35 35       	xor    $0x35353535,%eax
    904d:	35 35 35 35 35       	xor    $0x35353535,%eax
    9052:	35 35 35 35 35       	xor    $0x35353535,%eax
    9057:	35 35 35 35 35       	xor    $0x35353535,%eax
    905c:	35 35 35 35 35       	xor    $0x35353535,%eax
    9061:	35 35 35 35 35       	xor    $0x35353535,%eax
    9066:	35 35 35 35 35       	xor    $0x35353535,%eax
    906b:	35 35 35 35 35       	xor    $0x35353535,%eax
    9070:	35 35 35 35 35       	xor    $0x35353535,%eax
    9075:	35 35 35 35 35       	xor    $0x35353535,%eax
    907a:	35 35 35 35 35       	xor    $0x35353535,%eax
    907f:	35 35 35 35 35       	xor    $0x35353535,%eax
    9084:	35 35 35 35 35       	xor    $0x35353535,%eax
    9089:	35 35 35 35 35       	xor    $0x35353535,%eax
    908e:	35 35 35 35 35       	xor    $0x35353535,%eax
    9093:	35 35 35 35 35       	xor    $0x35353535,%eax
    9098:	35 35 35 35 35       	xor    $0x35353535,%eax
    909d:	35 35 35 35 35       	xor    $0x35353535,%eax
    90a2:	35 35 35 35 35       	xor    $0x35353535,%eax
    90a7:	35 35 35 35 35       	xor    $0x35353535,%eax
    90ac:	35 35 35 35 35       	xor    $0x35353535,%eax
    90b1:	35 35 35 35 35       	xor    $0x35353535,%eax
    90b6:	35 35 35 35 35       	xor    $0x35353535,%eax
    90bb:	35 35 35 35 35       	xor    $0x35353535,%eax
    90c0:	35 35 35 35 35       	xor    $0x35353535,%eax
    90c5:	35 35 35 35 35       	xor    $0x35353535,%eax
    90ca:	35 35 35 35 35       	xor    $0x35353535,%eax
    90cf:	35 35 35 35 35       	xor    $0x35353535,%eax
    90d4:	35 35 35 35 35       	xor    $0x35353535,%eax
    90d9:	35 35 35 35 35       	xor    $0x35353535,%eax
    90de:	35 35 35 35 35       	xor    $0x35353535,%eax
    90e3:	35 35 35 35 35       	xor    $0x35353535,%eax
    90e8:	35 35 35 35 35       	xor    $0x35353535,%eax
    90ed:	35 35 35 35 35       	xor    $0x35353535,%eax
    90f2:	35 35 35 35 35       	xor    $0x35353535,%eax
    90f7:	35 35 35 35 35       	xor    $0x35353535,%eax
    90fc:	35 35 35 35 35       	xor    $0x35353535,%eax
    9101:	35 35 35 35 35       	xor    $0x35353535,%eax
    9106:	35 35 35 35 35       	xor    $0x35353535,%eax
    910b:	35 35 35 35 35       	xor    $0x35353535,%eax
    9110:	35 35 35 35 35       	xor    $0x35353535,%eax
    9115:	35 35 35 35 35       	xor    $0x35353535,%eax
    911a:	35 35 35 35 35       	xor    $0x35353535,%eax
    911f:	35 35 35 35 35       	xor    $0x35353535,%eax
    9124:	35 35 35 35 35       	xor    $0x35353535,%eax
    9129:	35 35 35 35 35       	xor    $0x35353535,%eax
    912e:	35 35 35 35 35       	xor    $0x35353535,%eax
    9133:	35 35 35 35 35       	xor    $0x35353535,%eax
    9138:	35 35 35 35 35       	xor    $0x35353535,%eax
    913d:	35 35 35 35 35       	xor    $0x35353535,%eax
    9142:	35 35 35 35 35       	xor    $0x35353535,%eax
    9147:	35 35 35 35 35       	xor    $0x35353535,%eax
    914c:	35 35 35 35 35       	xor    $0x35353535,%eax
    9151:	35 35 35 35 35       	xor    $0x35353535,%eax
    9156:	35 35 35 35 35       	xor    $0x35353535,%eax
    915b:	35 35 35 35 35       	xor    $0x35353535,%eax
    9160:	35 35 35 35 35       	xor    $0x35353535,%eax
    9165:	35 35 35 35 35       	xor    $0x35353535,%eax
    916a:	35 35 35 35 35       	xor    $0x35353535,%eax
    916f:	35 35 35 35 35       	xor    $0x35353535,%eax
    9174:	35 35 35 35 35       	xor    $0x35353535,%eax
    9179:	35 35 35 35 35       	xor    $0x35353535,%eax
    917e:	35 35 35 35 35       	xor    $0x35353535,%eax
    9183:	35 35 35 35 35       	xor    $0x35353535,%eax
    9188:	35 35 35 35 35       	xor    $0x35353535,%eax
    918d:	35 35 35 35 35       	xor    $0x35353535,%eax
    9192:	35 35 35 35 35       	xor    $0x35353535,%eax
    9197:	35 35 35 35 35       	xor    $0x35353535,%eax
    919c:	35 35 35 35 35       	xor    $0x35353535,%eax
    91a1:	35 35 35 35 35       	xor    $0x35353535,%eax
    91a6:	35 35 35 35 35       	xor    $0x35353535,%eax
    91ab:	35 35 35 35 35       	xor    $0x35353535,%eax
    91b0:	35 35 35 35 35       	xor    $0x35353535,%eax
    91b5:	35 35 35 35 35       	xor    $0x35353535,%eax
    91ba:	35 35 35 35 35       	xor    $0x35353535,%eax
    91bf:	35 35 35 35 35       	xor    $0x35353535,%eax
    91c4:	35 35 35 35 35       	xor    $0x35353535,%eax
    91c9:	35 35 35 35 35       	xor    $0x35353535,%eax
    91ce:	35 35 35 35 35       	xor    $0x35353535,%eax
    91d3:	35 35 35 35 35       	xor    $0x35353535,%eax
    91d8:	35 35 35 35 35       	xor    $0x35353535,%eax
    91dd:	35 35 35 35 35       	xor    $0x35353535,%eax
    91e2:	35 35 35 35 35       	xor    $0x35353535,%eax
    91e7:	35 35 35 35 35       	xor    $0x35353535,%eax
    91ec:	35 35 35 35 35       	xor    $0x35353535,%eax
    91f1:	35 35 35 35 35       	xor    $0x35353535,%eax
    91f6:	35 35 35 35 35       	xor    $0x35353535,%eax
    91fb:	35 35 35 35 35       	xor    $0x35353535,%eax
    9200:	35 35 35 35 35       	xor    $0x35353535,%eax
    9205:	35 35 35 35 35       	xor    $0x35353535,%eax
    920a:	35 35 35 35 35       	xor    $0x35353535,%eax
    920f:	35 35 35 35 35       	xor    $0x35353535,%eax
    9214:	35 35 35 35 35       	xor    $0x35353535,%eax
    9219:	35 35 35 35 35       	xor    $0x35353535,%eax
    921e:	35 35 35 35 35       	xor    $0x35353535,%eax
    9223:	35 35 35 35 35       	xor    $0x35353535,%eax
    9228:	35 35 35 35 35       	xor    $0x35353535,%eax
    922d:	35 35 35 35 35       	xor    $0x35353535,%eax
    9232:	35 35 35 35 35       	xor    $0x35353535,%eax
    9237:	35 35 35 35 35       	xor    $0x35353535,%eax
    923c:	35 35 35 35 35       	xor    $0x35353535,%eax
    9241:	35 35 35 35 35       	xor    $0x35353535,%eax
    9246:	35 35 35 35 35       	xor    $0x35353535,%eax
    924b:	35 35 35 35 35       	xor    $0x35353535,%eax
    9250:	35 35 35 35 35       	xor    $0x35353535,%eax
    9255:	35 35 35 35 35       	xor    $0x35353535,%eax
    925a:	35 35 35 35 35       	xor    $0x35353535,%eax
    925f:	35 35 35 35 35       	xor    $0x35353535,%eax
    9264:	35 35 35 35 35       	xor    $0x35353535,%eax
    9269:	35 35 35 35 35       	xor    $0x35353535,%eax
    926e:	35 35 35 35 35       	xor    $0x35353535,%eax
    9273:	35 35 35 35 35       	xor    $0x35353535,%eax
    9278:	35 35 35 35 35       	xor    $0x35353535,%eax
    927d:	35 35 35 35 35       	xor    $0x35353535,%eax
    9282:	35 35 35 35 35       	xor    $0x35353535,%eax
    9287:	35 35 35 35 35       	xor    $0x35353535,%eax
    928c:	35 35 35 35 35       	xor    $0x35353535,%eax
    9291:	35 35 35 35 35       	xor    $0x35353535,%eax
    9296:	35 35 35 35 35       	xor    $0x35353535,%eax
    929b:	35 35 35 35 35       	xor    $0x35353535,%eax
    92a0:	35 35 35 35 35       	xor    $0x35353535,%eax
    92a5:	35 35 35 35 35       	xor    $0x35353535,%eax
    92aa:	35 35 35 35 35       	xor    $0x35353535,%eax
    92af:	35 35 35 35 35       	xor    $0x35353535,%eax
    92b4:	35 35 35 35 35       	xor    $0x35353535,%eax
    92b9:	35 35 35 35 35       	xor    $0x35353535,%eax
    92be:	35 35 35 35 35       	xor    $0x35353535,%eax
    92c3:	35 35 35 35 35       	xor    $0x35353535,%eax
    92c8:	35 35 35 35 35       	xor    $0x35353535,%eax
    92cd:	35 35 35 35 35       	xor    $0x35353535,%eax
    92d2:	35 35 35 35 35       	xor    $0x35353535,%eax
    92d7:	35 35 35 35 35       	xor    $0x35353535,%eax
    92dc:	35 35 35 35 35       	xor    $0x35353535,%eax
    92e1:	35 35 35 35 35       	xor    $0x35353535,%eax
    92e6:	35 35 35 35 35       	xor    $0x35353535,%eax
    92eb:	35 35 35 35 35       	xor    $0x35353535,%eax
    92f0:	35 35 35 35 35       	xor    $0x35353535,%eax
    92f5:	35 35 35 35 35       	xor    $0x35353535,%eax
    92fa:	35 35 35 35 35       	xor    $0x35353535,%eax
    92ff:	35 35 35 35 35       	xor    $0x35353535,%eax
    9304:	35 35 35 35 35       	xor    $0x35353535,%eax
    9309:	35 35 35 35 35       	xor    $0x35353535,%eax
    930e:	35 35 35 35 35       	xor    $0x35353535,%eax
    9313:	35 35 35 35 35       	xor    $0x35353535,%eax
    9318:	35 35 35 35 35       	xor    $0x35353535,%eax
    931d:	35 35 35 35 35       	xor    $0x35353535,%eax
    9322:	35 35 35 35 35       	xor    $0x35353535,%eax
    9327:	35 35 35 35 35       	xor    $0x35353535,%eax
    932c:	35 35 35 35 35       	xor    $0x35353535,%eax
    9331:	35 35 35 35 35       	xor    $0x35353535,%eax
    9336:	35 35 35 35 35       	xor    $0x35353535,%eax
    933b:	35 35 35 35 35       	xor    $0x35353535,%eax
    9340:	35 35 35 35 35       	xor    $0x35353535,%eax
    9345:	35 35 35 35 35       	xor    $0x35353535,%eax
    934a:	35 35 35 35 35       	xor    $0x35353535,%eax
    934f:	35 35 35 35 35       	xor    $0x35353535,%eax
    9354:	35 35 35 35 35       	xor    $0x35353535,%eax
    9359:	35 35 35 35 35       	xor    $0x35353535,%eax
    935e:	35 35 35 35 35       	xor    $0x35353535,%eax
    9363:	35 35 35 35 35       	xor    $0x35353535,%eax
    9368:	35 35 35 35 35       	xor    $0x35353535,%eax
    936d:	35 35 35 35 35       	xor    $0x35353535,%eax
    9372:	35 35 35 35 35       	xor    $0x35353535,%eax
    9377:	35 35 35 35 35       	xor    $0x35353535,%eax
    937c:	35 35 35 35 35       	xor    $0x35353535,%eax
    9381:	35 35 35 35 35       	xor    $0x35353535,%eax
    9386:	35 35 35 35 35       	xor    $0x35353535,%eax
    938b:	35 35 35 35 35       	xor    $0x35353535,%eax
    9390:	35 35 35 35 35       	xor    $0x35353535,%eax
    9395:	35 35 35 35 35       	xor    $0x35353535,%eax
    939a:	35 35 35 35 35       	xor    $0x35353535,%eax
    939f:	35 35 35 35 35       	xor    $0x35353535,%eax
    93a4:	35 35 35 35 35       	xor    $0x35353535,%eax
    93a9:	35 35 35 35 35       	xor    $0x35353535,%eax
    93ae:	35 35 35 35 35       	xor    $0x35353535,%eax
    93b3:	35 35 35 35 35       	xor    $0x35353535,%eax
    93b8:	35 35 35 35 35       	xor    $0x35353535,%eax
    93bd:	35 35 35 35 35       	xor    $0x35353535,%eax
    93c2:	35 35 35 35 35       	xor    $0x35353535,%eax
    93c7:	35 35 35 35 35       	xor    $0x35353535,%eax
    93cc:	35 35 35 35 35       	xor    $0x35353535,%eax
    93d1:	35 35 35 35 35       	xor    $0x35353535,%eax
    93d6:	35 35 35 35 35       	xor    $0x35353535,%eax
    93db:	35 35 35 35 35       	xor    $0x35353535,%eax
    93e0:	35 35 35 35 35       	xor    $0x35353535,%eax
    93e5:	35 35 35 35 35       	xor    $0x35353535,%eax
    93ea:	35 35 35 35 35       	xor    $0x35353535,%eax
    93ef:	35 35 35 35 35       	xor    $0x35353535,%eax
    93f4:	35 35 35 35 35       	xor    $0x35353535,%eax
    93f9:	35 35 35 35 35       	xor    $0x35353535,%eax
    93fe:	35 35 35 35 35       	xor    $0x35353535,%eax
    9403:	35 35 35 35 35       	xor    $0x35353535,%eax
    9408:	35 35 35 35 35       	xor    $0x35353535,%eax
    940d:	35 35 35 35 35       	xor    $0x35353535,%eax
    9412:	35 35 35 35 35       	xor    $0x35353535,%eax
    9417:	35 35 35 35 35       	xor    $0x35353535,%eax
    941c:	35 35 35 35 35       	xor    $0x35353535,%eax
    9421:	35 35 35 35 35       	xor    $0x35353535,%eax
    9426:	35 35 35 35 35       	xor    $0x35353535,%eax
    942b:	35 35 35 35 35       	xor    $0x35353535,%eax
    9430:	35 35 35 35 35       	xor    $0x35353535,%eax
    9435:	35 35 35 35 35       	xor    $0x35353535,%eax
    943a:	35 35 35 35 35       	xor    $0x35353535,%eax
    943f:	35 35 35 35 35       	xor    $0x35353535,%eax
    9444:	35 35 35 35 35       	xor    $0x35353535,%eax
    9449:	35 35 35 35 35       	xor    $0x35353535,%eax
    944e:	35 35 35 35 35       	xor    $0x35353535,%eax
    9453:	35 35 35 35 35       	xor    $0x35353535,%eax
    9458:	35 35 35 35 35       	xor    $0x35353535,%eax
    945d:	35 35 35 35 35       	xor    $0x35353535,%eax
    9462:	35 35 35 35 35       	xor    $0x35353535,%eax
    9467:	35 35 35 35 35       	xor    $0x35353535,%eax
    946c:	35 35 35 35 35       	xor    $0x35353535,%eax
    9471:	35 35 35 35 35       	xor    $0x35353535,%eax
    9476:	35 35 35 35 35       	xor    $0x35353535,%eax
    947b:	35 35 35 35 35       	xor    $0x35353535,%eax
    9480:	35 35 35 35 35       	xor    $0x35353535,%eax
    9485:	35 35 35 35 35       	xor    $0x35353535,%eax
    948a:	35 35 35 35 35       	xor    $0x35353535,%eax
    948f:	35 35 35 35 35       	xor    $0x35353535,%eax
    9494:	35 35 35 35 35       	xor    $0x35353535,%eax
    9499:	35 35 35 35 35       	xor    $0x35353535,%eax
    949e:	35 35 35 35 35       	xor    $0x35353535,%eax
    94a3:	35 35 35 35 35       	xor    $0x35353535,%eax
    94a8:	35 35 35 35 35       	xor    $0x35353535,%eax
    94ad:	35 35 35 35 35       	xor    $0x35353535,%eax
    94b2:	35 35 35 35 35       	xor    $0x35353535,%eax
    94b7:	35 35 35 35 35       	xor    $0x35353535,%eax
    94bc:	35 35 35 35 35       	xor    $0x35353535,%eax
    94c1:	35 35 35 35 35       	xor    $0x35353535,%eax
    94c6:	35 35 35 35 35       	xor    $0x35353535,%eax
    94cb:	35 35 35 35 35       	xor    $0x35353535,%eax
    94d0:	35 35 35 35 35       	xor    $0x35353535,%eax
    94d5:	35 35 35 35 35       	xor    $0x35353535,%eax
    94da:	35 35 35 35 35       	xor    $0x35353535,%eax
    94df:	35 35 35 35 35       	xor    $0x35353535,%eax
    94e4:	35 35 35 35 35       	xor    $0x35353535,%eax
    94e9:	35 35 35 35 35       	xor    $0x35353535,%eax
    94ee:	35 35 35 35 35       	xor    $0x35353535,%eax
    94f3:	35 35 35 35 35       	xor    $0x35353535,%eax
    94f8:	35 35 35 35 35       	xor    $0x35353535,%eax
    94fd:	35 35 35 35 35       	xor    $0x35353535,%eax
    9502:	35 35 35 35 35       	xor    $0x35353535,%eax
    9507:	35 35 35 35 35       	xor    $0x35353535,%eax
    950c:	35 35 35 35 35       	xor    $0x35353535,%eax
    9511:	35 35 35 35 35       	xor    $0x35353535,%eax
    9516:	35 35 35 35 35       	xor    $0x35353535,%eax
    951b:	35 35 35 35 35       	xor    $0x35353535,%eax
    9520:	35 35 35 35 35       	xor    $0x35353535,%eax
    9525:	35 35 35 35 35       	xor    $0x35353535,%eax
    952a:	35 35 35 35 35       	xor    $0x35353535,%eax
    952f:	35 35 35 35 35       	xor    $0x35353535,%eax
    9534:	35 35 35 35 35       	xor    $0x35353535,%eax
    9539:	35 35 35 35 35       	xor    $0x35353535,%eax
    953e:	35 35 35 35 35       	xor    $0x35353535,%eax
    9543:	35 35 35 35 35       	xor    $0x35353535,%eax
    9548:	35 35 35 35 35       	xor    $0x35353535,%eax
    954d:	35 35 35 35 35       	xor    $0x35353535,%eax
    9552:	35 35 35 35 35       	xor    $0x35353535,%eax
    9557:	35 35 35 35 35       	xor    $0x35353535,%eax
    955c:	35 35 35 35 35       	xor    $0x35353535,%eax
    9561:	35 35 35 35 35       	xor    $0x35353535,%eax
    9566:	35 35 35 35 35       	xor    $0x35353535,%eax
    956b:	35 35 35 35 35       	xor    $0x35353535,%eax
    9570:	35 35 35 35 35       	xor    $0x35353535,%eax
    9575:	35 35 35 35 35       	xor    $0x35353535,%eax
    957a:	35 35 35 35 35       	xor    $0x35353535,%eax
    957f:	35 35 35 35 35       	xor    $0x35353535,%eax
    9584:	35 35 35 35 35       	xor    $0x35353535,%eax
    9589:	35 35 35 35 35       	xor    $0x35353535,%eax
    958e:	35 35 35 35 35       	xor    $0x35353535,%eax
    9593:	35 35 35 35 35       	xor    $0x35353535,%eax
    9598:	35 35 35 35 35       	xor    $0x35353535,%eax
    959d:	35 35 35 35 35       	xor    $0x35353535,%eax
    95a2:	35 35 35 35 35       	xor    $0x35353535,%eax
    95a7:	35 35 35 35 35       	xor    $0x35353535,%eax
    95ac:	35 35 35 35 35       	xor    $0x35353535,%eax
    95b1:	35 35 35 35 35       	xor    $0x35353535,%eax
    95b6:	35 35 35 35 35       	xor    $0x35353535,%eax
    95bb:	35 35 35 35 35       	xor    $0x35353535,%eax
    95c0:	35 35 35 35 35       	xor    $0x35353535,%eax
    95c5:	35 35 35 35 35       	xor    $0x35353535,%eax
    95ca:	35 35 35 35 35       	xor    $0x35353535,%eax
    95cf:	35 35 35 35 35       	xor    $0x35353535,%eax
    95d4:	35 35 35 35 35       	xor    $0x35353535,%eax
    95d9:	35 35 35 35 35       	xor    $0x35353535,%eax
    95de:	35 35 35 35 35       	xor    $0x35353535,%eax
    95e3:	35 35 35 35 35       	xor    $0x35353535,%eax
    95e8:	35 35 35 35 35       	xor    $0x35353535,%eax
    95ed:	35 35 35 35 35       	xor    $0x35353535,%eax
    95f2:	35 35 35 35 35       	xor    $0x35353535,%eax
    95f7:	35 35 35 35 35       	xor    $0x35353535,%eax
    95fc:	35 35 35 35 35       	xor    $0x35353535,%eax
    9601:	35 35 35 35 35       	xor    $0x35353535,%eax
    9606:	35 35 35 35 35       	xor    $0x35353535,%eax
    960b:	35 35 35 35 35       	xor    $0x35353535,%eax
    9610:	35 35 35 35 35       	xor    $0x35353535,%eax
    9615:	35 35 35 35 35       	xor    $0x35353535,%eax
    961a:	35 35 35 35 35       	xor    $0x35353535,%eax
    961f:	35 35 35 35 35       	xor    $0x35353535,%eax
    9624:	35 35 35 35 35       	xor    $0x35353535,%eax
    9629:	35 35 35 35 35       	xor    $0x35353535,%eax
    962e:	35 35 35 35 35       	xor    $0x35353535,%eax
    9633:	35 35 35 35 35       	xor    $0x35353535,%eax
    9638:	35 35 35 35 35       	xor    $0x35353535,%eax
    963d:	35 35 35 35 35       	xor    $0x35353535,%eax
    9642:	35 35 35 35 35       	xor    $0x35353535,%eax
    9647:	35 35 35 35 35       	xor    $0x35353535,%eax
    964c:	35 35 35 35 35       	xor    $0x35353535,%eax
    9651:	35 35 35 35 35       	xor    $0x35353535,%eax
    9656:	35 35 35 35 35       	xor    $0x35353535,%eax
    965b:	35 35 35 35 35       	xor    $0x35353535,%eax
    9660:	35 35 35 35 35       	xor    $0x35353535,%eax
    9665:	35 35 35 35 35       	xor    $0x35353535,%eax
    966a:	35 35 35 35 35       	xor    $0x35353535,%eax
    966f:	35 35 35 35 35       	xor    $0x35353535,%eax
    9674:	35 35 35 35 35       	xor    $0x35353535,%eax
    9679:	35 35 35 35 35       	xor    $0x35353535,%eax
    967e:	35 35 35 35 35       	xor    $0x35353535,%eax
    9683:	35 35 35 35 35       	xor    $0x35353535,%eax
    9688:	35 35 35 35 35       	xor    $0x35353535,%eax
    968d:	35 35 35 35 35       	xor    $0x35353535,%eax
    9692:	35 35 35 35 35       	xor    $0x35353535,%eax
    9697:	35 35 35 35 35       	xor    $0x35353535,%eax
    969c:	35 35 35 35 35       	xor    $0x35353535,%eax
    96a1:	35 35 35 35 35       	xor    $0x35353535,%eax
    96a6:	35 35 35 35 35       	xor    $0x35353535,%eax
    96ab:	35 35 35 35 35       	xor    $0x35353535,%eax
    96b0:	35 35 35 35 35       	xor    $0x35353535,%eax
    96b5:	35 35 35 35 35       	xor    $0x35353535,%eax
    96ba:	35 35 35 35 35       	xor    $0x35353535,%eax
    96bf:	35 35 35 35 35       	xor    $0x35353535,%eax
    96c4:	35 35 35 35 35       	xor    $0x35353535,%eax
    96c9:	35 35 35 35 35       	xor    $0x35353535,%eax
    96ce:	35 35 35 35 35       	xor    $0x35353535,%eax
    96d3:	35 35 35 35 35       	xor    $0x35353535,%eax
    96d8:	35 35 35 35 35       	xor    $0x35353535,%eax
    96dd:	35 35 35 35 35       	xor    $0x35353535,%eax
    96e2:	35 35 35 35 35       	xor    $0x35353535,%eax
    96e7:	35 35 35 35 35       	xor    $0x35353535,%eax
    96ec:	35 35 35 35 35       	xor    $0x35353535,%eax
    96f1:	35 35 35 35 35       	xor    $0x35353535,%eax
    96f6:	35 35 35 35 35       	xor    $0x35353535,%eax
    96fb:	35 35 35 35 35       	xor    $0x35353535,%eax
    9700:	35 35 35 35 35       	xor    $0x35353535,%eax
    9705:	35 35 35 35 35       	xor    $0x35353535,%eax
    970a:	35 35 35 35 35       	xor    $0x35353535,%eax
    970f:	35 35 35 35 35       	xor    $0x35353535,%eax
    9714:	35 35 35 35 35       	xor    $0x35353535,%eax
    9719:	35 35 35 35 35       	xor    $0x35353535,%eax
    971e:	35 35 35 35 35       	xor    $0x35353535,%eax
    9723:	35 35 35 35 35       	xor    $0x35353535,%eax
    9728:	35 35 35 35 35       	xor    $0x35353535,%eax
    972d:	35 35 35 35 35       	xor    $0x35353535,%eax
    9732:	35 35 35 35 35       	xor    $0x35353535,%eax
    9737:	35 35 35 35 35       	xor    $0x35353535,%eax
    973c:	35 35 35 35 35       	xor    $0x35353535,%eax
    9741:	35 35 35 35 35       	xor    $0x35353535,%eax
    9746:	35 35 35 35 35       	xor    $0x35353535,%eax
    974b:	35 35 35 35 35       	xor    $0x35353535,%eax
    9750:	35 35 35 35 35       	xor    $0x35353535,%eax
    9755:	35 35 35 35 35       	xor    $0x35353535,%eax
    975a:	35 35 35 35 35       	xor    $0x35353535,%eax
    975f:	35 35 35 35 35       	xor    $0x35353535,%eax
    9764:	35 35 35 35 35       	xor    $0x35353535,%eax
    9769:	35 35 35 35 35       	xor    $0x35353535,%eax
    976e:	35 35 35 35 35       	xor    $0x35353535,%eax
    9773:	35 35 35 35 35       	xor    $0x35353535,%eax
    9778:	35 35 35 35 35       	xor    $0x35353535,%eax
    977d:	35 35 35 35 35       	xor    $0x35353535,%eax
    9782:	35 35 35 35 35       	xor    $0x35353535,%eax
    9787:	35 35 35 35 35       	xor    $0x35353535,%eax
    978c:	35 35 35 35 35       	xor    $0x35353535,%eax
    9791:	35 35 35 35 35       	xor    $0x35353535,%eax
    9796:	35 35 35 35 35       	xor    $0x35353535,%eax
    979b:	35 35 35 35 35       	xor    $0x35353535,%eax
    97a0:	35 35 35 35 35       	xor    $0x35353535,%eax
    97a5:	35 35 35 35 35       	xor    $0x35353535,%eax
    97aa:	35 35 35 35 35       	xor    $0x35353535,%eax
    97af:	35 35 35 35 35       	xor    $0x35353535,%eax
    97b4:	35 35 35 35 35       	xor    $0x35353535,%eax
    97b9:	35 35 35 35 35       	xor    $0x35353535,%eax
    97be:	35 35 35 35 35       	xor    $0x35353535,%eax
    97c3:	35 35 35 35 35       	xor    $0x35353535,%eax
    97c8:	35 35 35 35 35       	xor    $0x35353535,%eax
    97cd:	35 35 35 35 35       	xor    $0x35353535,%eax
    97d2:	35 35 35 35 35       	xor    $0x35353535,%eax
    97d7:	35 35 35 35 35       	xor    $0x35353535,%eax
    97dc:	35 35 35 35 35       	xor    $0x35353535,%eax
    97e1:	35 35 35 35 35       	xor    $0x35353535,%eax
    97e6:	35 35 35 35 35       	xor    $0x35353535,%eax
    97eb:	35 35 35 35 35       	xor    $0x35353535,%eax
    97f0:	35 35 35 35 35       	xor    $0x35353535,%eax
    97f5:	35 35 35 35 35       	xor    $0x35353535,%eax
    97fa:	35 35 35 35 35       	xor    $0x35353535,%eax
    97ff:	35 35 35 35 35       	xor    $0x35353535,%eax
    9804:	35 35 35 35 35       	xor    $0x35353535,%eax
    9809:	35 35 35 35 35       	xor    $0x35353535,%eax
    980e:	35 35 35 35 35       	xor    $0x35353535,%eax
    9813:	35 35 35 35 35       	xor    $0x35353535,%eax
    9818:	35 35 35 35 35       	xor    $0x35353535,%eax
    981d:	35 35 35 35 35       	xor    $0x35353535,%eax
    9822:	35 35 35 35 35       	xor    $0x35353535,%eax
    9827:	35 35 35 35 35       	xor    $0x35353535,%eax
    982c:	35 35 35 35 35       	xor    $0x35353535,%eax
    9831:	35 35 35 35 35       	xor    $0x35353535,%eax
    9836:	35 35 35 35 35       	xor    $0x35353535,%eax
    983b:	35 35 35 35 35       	xor    $0x35353535,%eax
    9840:	35 35 35 35 35       	xor    $0x35353535,%eax
    9845:	35 35 35 35 35       	xor    $0x35353535,%eax
    984a:	35 35 35 35 35       	xor    $0x35353535,%eax
    984f:	35 35 35 35 35       	xor    $0x35353535,%eax
    9854:	35 35 35 35 35       	xor    $0x35353535,%eax
    9859:	35 35 35 35 35       	xor    $0x35353535,%eax
    985e:	35 35 35 35 35       	xor    $0x35353535,%eax
    9863:	35 35 35 35 35       	xor    $0x35353535,%eax
    9868:	35 35 35 35 35       	xor    $0x35353535,%eax
    986d:	35 35 35 35 35       	xor    $0x35353535,%eax
    9872:	35 35 35 35 35       	xor    $0x35353535,%eax
    9877:	35 35 35 35 35       	xor    $0x35353535,%eax
    987c:	35 35 35 35 35       	xor    $0x35353535,%eax
    9881:	35 35 35 35 35       	xor    $0x35353535,%eax
    9886:	35 35 35 35 35       	xor    $0x35353535,%eax
    988b:	35 35 35 35 35       	xor    $0x35353535,%eax
    9890:	35 35 35 35 35       	xor    $0x35353535,%eax
    9895:	35 35 35 35 35       	xor    $0x35353535,%eax
    989a:	35 35 35 35 35       	xor    $0x35353535,%eax
    989f:	35 35 35 35 35       	xor    $0x35353535,%eax
    98a4:	35 35 35 35 35       	xor    $0x35353535,%eax
    98a9:	35 35 35 35 35       	xor    $0x35353535,%eax
    98ae:	35 35 35 35 35       	xor    $0x35353535,%eax
    98b3:	35 35 35 35 35       	xor    $0x35353535,%eax
    98b8:	35 35 35 35 35       	xor    $0x35353535,%eax
    98bd:	35 35 35 35 35       	xor    $0x35353535,%eax
    98c2:	35 35 35 35 35       	xor    $0x35353535,%eax
    98c7:	35 35 35 35 35       	xor    $0x35353535,%eax
    98cc:	35 35 35 35 35       	xor    $0x35353535,%eax
    98d1:	35 35 35 35 35       	xor    $0x35353535,%eax
    98d6:	35 35 35 35 35       	xor    $0x35353535,%eax
    98db:	35 35 35 35 35       	xor    $0x35353535,%eax
    98e0:	35 35 35 35 35       	xor    $0x35353535,%eax
    98e5:	35 35 35 35 35       	xor    $0x35353535,%eax
    98ea:	35 35 35 35 35       	xor    $0x35353535,%eax
    98ef:	35 35 35 35 35       	xor    $0x35353535,%eax
    98f4:	35 35 35 35 35       	xor    $0x35353535,%eax
    98f9:	35 35 35 35 35       	xor    $0x35353535,%eax
    98fe:	35 35 35 35 35       	xor    $0x35353535,%eax
    9903:	35 35 35 35 35       	xor    $0x35353535,%eax
    9908:	35 35 35 35 35       	xor    $0x35353535,%eax
    990d:	35 35 35 35 35       	xor    $0x35353535,%eax
    9912:	35 35 35 35 35       	xor    $0x35353535,%eax
    9917:	35 35 35 35 35       	xor    $0x35353535,%eax
    991c:	35 35 35 35 35       	xor    $0x35353535,%eax
    9921:	35 35 35 35 35       	xor    $0x35353535,%eax
    9926:	35 35 35 35 35       	xor    $0x35353535,%eax
    992b:	35 35 35 35 35       	xor    $0x35353535,%eax
    9930:	35 35 35 35 35       	xor    $0x35353535,%eax
    9935:	35 35 35 35 35       	xor    $0x35353535,%eax
    993a:	35 35 35 35 35       	xor    $0x35353535,%eax
    993f:	35 35 35 35 35       	xor    $0x35353535,%eax
    9944:	35 35 35 35 35       	xor    $0x35353535,%eax
    9949:	35 35 35 35 35       	xor    $0x35353535,%eax
    994e:	35 35 35 35 35       	xor    $0x35353535,%eax
    9953:	35 35 35 35 35       	xor    $0x35353535,%eax
    9958:	35 35 35 35 35       	xor    $0x35353535,%eax
    995d:	35 35 35 35 35       	xor    $0x35353535,%eax
    9962:	35 35 35 35 35       	xor    $0x35353535,%eax
    9967:	35 35 35 35 35       	xor    $0x35353535,%eax
    996c:	35 35 35 35 35       	xor    $0x35353535,%eax
    9971:	35 35 35 35 35       	xor    $0x35353535,%eax
    9976:	35 35 35 35 35       	xor    $0x35353535,%eax
    997b:	35 35 35 35 35       	xor    $0x35353535,%eax
    9980:	35 35 35 35 35       	xor    $0x35353535,%eax
    9985:	35 35 35 35 35       	xor    $0x35353535,%eax
    998a:	35 35 35 35 35       	xor    $0x35353535,%eax
    998f:	35 35 35 35 35       	xor    $0x35353535,%eax
    9994:	35 35 35 35 35       	xor    $0x35353535,%eax
    9999:	35 35 35 35 35       	xor    $0x35353535,%eax
    999e:	35 35 35 35 35       	xor    $0x35353535,%eax
    99a3:	35 35 35 35 35       	xor    $0x35353535,%eax
    99a8:	35 35 35 35 35       	xor    $0x35353535,%eax
    99ad:	35 35 35 35 35       	xor    $0x35353535,%eax
    99b2:	35 35 35 35 35       	xor    $0x35353535,%eax
    99b7:	35 35 35 35 35       	xor    $0x35353535,%eax
    99bc:	35 35 35 35 35       	xor    $0x35353535,%eax
    99c1:	35 35 35 35 35       	xor    $0x35353535,%eax
    99c6:	35 35 35 35 35       	xor    $0x35353535,%eax
    99cb:	35 35 35 35 35       	xor    $0x35353535,%eax
    99d0:	35 35 35 35 35       	xor    $0x35353535,%eax
    99d5:	35 35 35 35 35       	xor    $0x35353535,%eax
    99da:	35 35 35 35 35       	xor    $0x35353535,%eax
    99df:	35 35 35 35 35       	xor    $0x35353535,%eax
    99e4:	35 35 35 35 35       	xor    $0x35353535,%eax
    99e9:	35 35 35 35 35       	xor    $0x35353535,%eax
    99ee:	35 35 35 35 35       	xor    $0x35353535,%eax
    99f3:	35 35 35 35 35       	xor    $0x35353535,%eax
    99f8:	35 35 35 35 35       	xor    $0x35353535,%eax
    99fd:	35 35 35 35 35       	xor    $0x35353535,%eax
    9a02:	35 35 35 35 35       	xor    $0x35353535,%eax
    9a07:	35 35 35 35 35       	xor    $0x35353535,%eax
    9a0c:	35 35 35 35 35       	xor    $0x35353535,%eax
    9a11:	35 35 35 35 35       	xor    $0x35353535,%eax
    9a16:	35 35 35 35 35       	xor    $0x35353535,%eax
    9a1b:	35 35 35 35 35       	xor    $0x35353535,%eax
    9a20:	35 35 35 35 35       	xor    $0x35353535,%eax
    9a25:	35 35 35 35 35       	xor    $0x35353535,%eax
    9a2a:	35 35 35 35 35       	xor    $0x35353535,%eax
    9a2f:	35 35 35 35 35       	xor    $0x35353535,%eax
    9a34:	35 35 35 35 35       	xor    $0x35353535,%eax
    9a39:	35 35 35 35 35       	xor    $0x35353535,%eax
    9a3e:	35 35 35 35 35       	xor    $0x35353535,%eax
    9a43:	35 35 35 35 35       	xor    $0x35353535,%eax
    9a48:	35 35 35 35 35       	xor    $0x35353535,%eax
    9a4d:	35 35 35 35 35       	xor    $0x35353535,%eax
    9a52:	35 35 35 35 35       	xor    $0x35353535,%eax
    9a57:	35 35 35 35 35       	xor    $0x35353535,%eax
    9a5c:	35 35 35 35 35       	xor    $0x35353535,%eax
    9a61:	35 35 35 35 35       	xor    $0x35353535,%eax
    9a66:	35 35 35 35 35       	xor    $0x35353535,%eax
    9a6b:	35 35 35 35 35       	xor    $0x35353535,%eax
    9a70:	35 35 35 35 35       	xor    $0x35353535,%eax
    9a75:	35 35 35 35 35       	xor    $0x35353535,%eax
    9a7a:	35 35 35 35 35       	xor    $0x35353535,%eax
    9a7f:	35 35 35 35 35       	xor    $0x35353535,%eax
    9a84:	35 35 35 35 35       	xor    $0x35353535,%eax
    9a89:	35 35 35 35 35       	xor    $0x35353535,%eax
    9a8e:	35 35 35 35 35       	xor    $0x35353535,%eax
    9a93:	35 35 35 35 35       	xor    $0x35353535,%eax
    9a98:	35 35 35 35 35       	xor    $0x35353535,%eax
    9a9d:	35 35 35 35 35       	xor    $0x35353535,%eax
    9aa2:	35 35 35 35 35       	xor    $0x35353535,%eax
    9aa7:	35 35 35 35 35       	xor    $0x35353535,%eax
    9aac:	35 35 35 35 35       	xor    $0x35353535,%eax
    9ab1:	35 35 35 35 35       	xor    $0x35353535,%eax
    9ab6:	35 35 35 35 35       	xor    $0x35353535,%eax
    9abb:	35 35 35 35 35       	xor    $0x35353535,%eax
    9ac0:	35 35 35 35 35       	xor    $0x35353535,%eax
    9ac5:	35 35 35 35 35       	xor    $0x35353535,%eax
    9aca:	35 35 35 35 35       	xor    $0x35353535,%eax
    9acf:	35 35 35 35 35       	xor    $0x35353535,%eax
    9ad4:	35 35 35 35 35       	xor    $0x35353535,%eax
    9ad9:	35 35 35 35 35       	xor    $0x35353535,%eax
    9ade:	35 35 35 35 35       	xor    $0x35353535,%eax
    9ae3:	35 35 35 35 35       	xor    $0x35353535,%eax
    9ae8:	35 35 35 35 35       	xor    $0x35353535,%eax
    9aed:	35 35 35 35 35       	xor    $0x35353535,%eax
    9af2:	35 35 35 35 35       	xor    $0x35353535,%eax
    9af7:	35 35 35 35 35       	xor    $0x35353535,%eax
    9afc:	35 35 35 35 35       	xor    $0x35353535,%eax
    9b01:	35 35 35 35 35       	xor    $0x35353535,%eax
    9b06:	35 35 35 35 35       	xor    $0x35353535,%eax
    9b0b:	35 35 35 35 35       	xor    $0x35353535,%eax
    9b10:	35 35 35 35 35       	xor    $0x35353535,%eax
    9b15:	35 35 35 35 35       	xor    $0x35353535,%eax
    9b1a:	35 35 35 35 35       	xor    $0x35353535,%eax
    9b1f:	35 35 35 35 35       	xor    $0x35353535,%eax
    9b24:	35 35 35 35 35       	xor    $0x35353535,%eax
    9b29:	35 35 35 35 35       	xor    $0x35353535,%eax
    9b2e:	35 35 35 35 35       	xor    $0x35353535,%eax
    9b33:	35 35 35 35 35       	xor    $0x35353535,%eax
    9b38:	35 35 35 35 35       	xor    $0x35353535,%eax
    9b3d:	35 35 35 35 35       	xor    $0x35353535,%eax
    9b42:	35 35 35 35 35       	xor    $0x35353535,%eax
    9b47:	35 35 35 35 35       	xor    $0x35353535,%eax
    9b4c:	35 35 35 35 35       	xor    $0x35353535,%eax
    9b51:	35 35 35 35 35       	xor    $0x35353535,%eax
    9b56:	35 35 35 35 35       	xor    $0x35353535,%eax
    9b5b:	35 35 35 35 35       	xor    $0x35353535,%eax
    9b60:	35 35 35 35 35       	xor    $0x35353535,%eax
    9b65:	35 35 35 35 35       	xor    $0x35353535,%eax
    9b6a:	35 35 35 35 35       	xor    $0x35353535,%eax
    9b6f:	35 35 35 35 35       	xor    $0x35353535,%eax
    9b74:	35 35 35 35 35       	xor    $0x35353535,%eax
    9b79:	35 35 35 35 35       	xor    $0x35353535,%eax
    9b7e:	35 35 35 35 35       	xor    $0x35353535,%eax
    9b83:	35 35 35 35 35       	xor    $0x35353535,%eax
    9b88:	35 35 35 35 35       	xor    $0x35353535,%eax
    9b8d:	35 35 35 35 35       	xor    $0x35353535,%eax
    9b92:	35 35 35 35 35       	xor    $0x35353535,%eax
    9b97:	35 35 35 35 35       	xor    $0x35353535,%eax
    9b9c:	35 35 35 35 35       	xor    $0x35353535,%eax
    9ba1:	35 35 35 35 35       	xor    $0x35353535,%eax
    9ba6:	35 35 35 35 35       	xor    $0x35353535,%eax
    9bab:	35 35 35 35 35       	xor    $0x35353535,%eax
    9bb0:	35 35 35 35 35       	xor    $0x35353535,%eax
    9bb5:	35 35 35 35 35       	xor    $0x35353535,%eax
    9bba:	35 35 35 35 35       	xor    $0x35353535,%eax
    9bbf:	35 35 35 35 35       	xor    $0x35353535,%eax
    9bc4:	35 35 35 35 35       	xor    $0x35353535,%eax
    9bc9:	35 35 35 35 35       	xor    $0x35353535,%eax
    9bce:	35 35 35 35 35       	xor    $0x35353535,%eax
    9bd3:	35 35 35 35 35       	xor    $0x35353535,%eax
    9bd8:	35 35 35 35 35       	xor    $0x35353535,%eax
    9bdd:	35 35 35 35 35       	xor    $0x35353535,%eax
    9be2:	35 35 35 35 35       	xor    $0x35353535,%eax
    9be7:	35 35 35 35 35       	xor    $0x35353535,%eax
    9bec:	35 35 35 35 35       	xor    $0x35353535,%eax
    9bf1:	35 35 35 35 35       	xor    $0x35353535,%eax
    9bf6:	35 35 35 35 35       	xor    $0x35353535,%eax
    9bfb:	35 35 35 35 35       	xor    $0x35353535,%eax
    9c00:	35 35 35 35 35       	xor    $0x35353535,%eax
    9c05:	35 35 35 35 35       	xor    $0x35353535,%eax
    9c0a:	35 35 35 35 35       	xor    $0x35353535,%eax
    9c0f:	35 35 35 35 35       	xor    $0x35353535,%eax
    9c14:	35 35 35 35 35       	xor    $0x35353535,%eax
    9c19:	35 35 35 35 35       	xor    $0x35353535,%eax
    9c1e:	35 35 35 35 35       	xor    $0x35353535,%eax
    9c23:	35 35 35 35 35       	xor    $0x35353535,%eax
    9c28:	35 35 35 35 35       	xor    $0x35353535,%eax
    9c2d:	35 35 35 35 35       	xor    $0x35353535,%eax
    9c32:	35 35 35 35 35       	xor    $0x35353535,%eax
    9c37:	35 35 35 35 35       	xor    $0x35353535,%eax
    9c3c:	35 35 35 35 35       	xor    $0x35353535,%eax
    9c41:	35 35 35 35 35       	xor    $0x35353535,%eax
    9c46:	35 35 35 35 35       	xor    $0x35353535,%eax
    9c4b:	35 35 35 35 35       	xor    $0x35353535,%eax
    9c50:	35 35 35 35 35       	xor    $0x35353535,%eax
    9c55:	35 35 35 35 35       	xor    $0x35353535,%eax
    9c5a:	35 35 35 35 35       	xor    $0x35353535,%eax
    9c5f:	35 35 35 35 35       	xor    $0x35353535,%eax
    9c64:	35 35 35 35 35       	xor    $0x35353535,%eax
    9c69:	35 35 35 35 35       	xor    $0x35353535,%eax
    9c6e:	35 35 35 35 35       	xor    $0x35353535,%eax
    9c73:	35 35 35 35 35       	xor    $0x35353535,%eax
    9c78:	35 35 35 35 35       	xor    $0x35353535,%eax
    9c7d:	35 35 35 35 35       	xor    $0x35353535,%eax
    9c82:	35 35 35 35 35       	xor    $0x35353535,%eax
    9c87:	35 35 35 35 35       	xor    $0x35353535,%eax
    9c8c:	35 35 35 35 35       	xor    $0x35353535,%eax
    9c91:	35 35 35 35 35       	xor    $0x35353535,%eax
    9c96:	35 35 35 35 35       	xor    $0x35353535,%eax
    9c9b:	35 35 35 35 35       	xor    $0x35353535,%eax
    9ca0:	35 35 35 35 35       	xor    $0x35353535,%eax
    9ca5:	35 35 35 35 35       	xor    $0x35353535,%eax
    9caa:	35 35 35 35 35       	xor    $0x35353535,%eax
    9caf:	35 35 35 35 35       	xor    $0x35353535,%eax
    9cb4:	35 35 35 35 35       	xor    $0x35353535,%eax
    9cb9:	35 35 35 35 35       	xor    $0x35353535,%eax
    9cbe:	35 35 35 35 35       	xor    $0x35353535,%eax
    9cc3:	35 35 35 35 35       	xor    $0x35353535,%eax
    9cc8:	35 35 35 35 35       	xor    $0x35353535,%eax
    9ccd:	35 35 35 35 35       	xor    $0x35353535,%eax
    9cd2:	35 35 35 35 35       	xor    $0x35353535,%eax
    9cd7:	35 35 35 35 35       	xor    $0x35353535,%eax
    9cdc:	35 35 35 35 35       	xor    $0x35353535,%eax
    9ce1:	35 35 35 35 35       	xor    $0x35353535,%eax
    9ce6:	35 35 35 35 35       	xor    $0x35353535,%eax
    9ceb:	35 35 35 35 35       	xor    $0x35353535,%eax
    9cf0:	35 35 35 35 35       	xor    $0x35353535,%eax
    9cf5:	35 35 35 35 35       	xor    $0x35353535,%eax
    9cfa:	35 35 35 35 35       	xor    $0x35353535,%eax
    9cff:	35 35 35 35 35       	xor    $0x35353535,%eax
    9d04:	35 35 35 35 35       	xor    $0x35353535,%eax
    9d09:	35 35 35 35 35       	xor    $0x35353535,%eax
    9d0e:	35 35 35 35 35       	xor    $0x35353535,%eax
    9d13:	35 35 35 35 35       	xor    $0x35353535,%eax
    9d18:	35 35 35 35 35       	xor    $0x35353535,%eax
    9d1d:	35 35 35 35 35       	xor    $0x35353535,%eax
    9d22:	35 35 35 35 35       	xor    $0x35353535,%eax
    9d27:	35 35 35 35 35       	xor    $0x35353535,%eax
    9d2c:	35 35 35 35 35       	xor    $0x35353535,%eax
    9d31:	35 35 35 35 35       	xor    $0x35353535,%eax
    9d36:	35 35 35 35 35       	xor    $0x35353535,%eax
    9d3b:	35 35 35 35 35       	xor    $0x35353535,%eax
    9d40:	35 35 35 35 35       	xor    $0x35353535,%eax
    9d45:	35 35 35 35 35       	xor    $0x35353535,%eax
    9d4a:	35 35 35 35 35       	xor    $0x35353535,%eax
    9d4f:	35 35 35 35 35       	xor    $0x35353535,%eax
    9d54:	35 35 35 35 35       	xor    $0x35353535,%eax
    9d59:	35 35 35 35 35       	xor    $0x35353535,%eax
    9d5e:	35 35 35 35 35       	xor    $0x35353535,%eax
    9d63:	35 35 35 35 35       	xor    $0x35353535,%eax
    9d68:	35 35 35 35 35       	xor    $0x35353535,%eax
    9d6d:	35 35 35 35 35       	xor    $0x35353535,%eax
    9d72:	35 35 35 35 35       	xor    $0x35353535,%eax
    9d77:	35 35 35 35 35       	xor    $0x35353535,%eax
    9d7c:	35 35 35 35 35       	xor    $0x35353535,%eax
    9d81:	35 35 35 35 35       	xor    $0x35353535,%eax
    9d86:	35 35 35 35 35       	xor    $0x35353535,%eax
    9d8b:	35 35 35 35 35       	xor    $0x35353535,%eax
    9d90:	35 35 35 35 35       	xor    $0x35353535,%eax
    9d95:	35 35 35 35 35       	xor    $0x35353535,%eax
    9d9a:	35 35 35 35 35       	xor    $0x35353535,%eax
    9d9f:	35 35 35 35 35       	xor    $0x35353535,%eax
    9da4:	35 35 35 35 35       	xor    $0x35353535,%eax
    9da9:	35 35 35 35 35       	xor    $0x35353535,%eax
    9dae:	35 35 35 35 35       	xor    $0x35353535,%eax
    9db3:	35 35 35 35 35       	xor    $0x35353535,%eax
    9db8:	35 35 35 35 35       	xor    $0x35353535,%eax
    9dbd:	35 35 35 35 35       	xor    $0x35353535,%eax
    9dc2:	35 35 35 35 35       	xor    $0x35353535,%eax
    9dc7:	35 35 35 35 35       	xor    $0x35353535,%eax
    9dcc:	35 35 35 35 35       	xor    $0x35353535,%eax
    9dd1:	35 35 35 35 35       	xor    $0x35353535,%eax
    9dd6:	35 35 35 35 35       	xor    $0x35353535,%eax
    9ddb:	35 35 35 35 35       	xor    $0x35353535,%eax
    9de0:	35 35 35 35 35       	xor    $0x35353535,%eax
    9de5:	35 35 35 35 35       	xor    $0x35353535,%eax
    9dea:	35 35 35 35 35       	xor    $0x35353535,%eax
    9def:	35 35 35 35 35       	xor    $0x35353535,%eax
    9df4:	35 35 35 35 35       	xor    $0x35353535,%eax
    9df9:	35 35 35 35 35       	xor    $0x35353535,%eax
    9dfe:	35 35 35 35 35       	xor    $0x35353535,%eax
    9e03:	35 35 35 35 35       	xor    $0x35353535,%eax
    9e08:	35 35 35 35 35       	xor    $0x35353535,%eax
    9e0d:	35 35 35 35 35       	xor    $0x35353535,%eax
    9e12:	35 35 35 35 35       	xor    $0x35353535,%eax
    9e17:	35 35 35 35 35       	xor    $0x35353535,%eax
    9e1c:	35 35 35 35 35       	xor    $0x35353535,%eax
    9e21:	35 35 35 35 35       	xor    $0x35353535,%eax
    9e26:	35 35 35 35 35       	xor    $0x35353535,%eax
    9e2b:	35 35 35 35 35       	xor    $0x35353535,%eax
    9e30:	35 35 35 35 35       	xor    $0x35353535,%eax
    9e35:	35 35 35 35 35       	xor    $0x35353535,%eax
    9e3a:	35 35 35 35 35       	xor    $0x35353535,%eax
    9e3f:	35 35 35 35 35       	xor    $0x35353535,%eax
    9e44:	35 35 35 35 35       	xor    $0x35353535,%eax
    9e49:	35 35 35 35 35       	xor    $0x35353535,%eax
    9e4e:	35 35 35 35 35       	xor    $0x35353535,%eax
    9e53:	35 35 35 35 35       	xor    $0x35353535,%eax
    9e58:	35 35 35 35 35       	xor    $0x35353535,%eax
    9e5d:	35 35 35 35 35       	xor    $0x35353535,%eax
    9e62:	35 35 35 35 35       	xor    $0x35353535,%eax
    9e67:	35 35 35 35 35       	xor    $0x35353535,%eax
    9e6c:	35 35 35 35 35       	xor    $0x35353535,%eax
    9e71:	35 35 35 35 35       	xor    $0x35353535,%eax
    9e76:	35 35 35 35 35       	xor    $0x35353535,%eax
    9e7b:	35 35 35 35 35       	xor    $0x35353535,%eax
    9e80:	35 35 35 35 35       	xor    $0x35353535,%eax
    9e85:	35 35 35 35 35       	xor    $0x35353535,%eax
    9e8a:	35 35 35 35 35       	xor    $0x35353535,%eax
    9e8f:	35 35 35 35 35       	xor    $0x35353535,%eax
    9e94:	35 35 35 35 35       	xor    $0x35353535,%eax
    9e99:	35 35 35 35 35       	xor    $0x35353535,%eax
    9e9e:	35 35 35 35 35       	xor    $0x35353535,%eax
    9ea3:	35 35 35 35 35       	xor    $0x35353535,%eax
    9ea8:	35 35 35 35 35       	xor    $0x35353535,%eax
    9ead:	35 35 35 35 35       	xor    $0x35353535,%eax
    9eb2:	35 35 35 35 35       	xor    $0x35353535,%eax
    9eb7:	35 35 35 35 35       	xor    $0x35353535,%eax
    9ebc:	35 35 35 35 35       	xor    $0x35353535,%eax
    9ec1:	35 35 35 35 35       	xor    $0x35353535,%eax
    9ec6:	35 35 35 35 35       	xor    $0x35353535,%eax
    9ecb:	35 35 35 35 35       	xor    $0x35353535,%eax
    9ed0:	35 35 35 35 35       	xor    $0x35353535,%eax
    9ed5:	35 35 35 35 35       	xor    $0x35353535,%eax
    9eda:	35 35 35 35 35       	xor    $0x35353535,%eax
    9edf:	35 35 35 35 35       	xor    $0x35353535,%eax
    9ee4:	35 35 35 35 35       	xor    $0x35353535,%eax
    9ee9:	35 35 35 35 35       	xor    $0x35353535,%eax
    9eee:	35 35 35 35 35       	xor    $0x35353535,%eax
    9ef3:	35 35 35 35 35       	xor    $0x35353535,%eax
    9ef8:	35 35 35 35 35       	xor    $0x35353535,%eax
    9efd:	35 35 35 35 35       	xor    $0x35353535,%eax
    9f02:	35 35 35 35 35       	xor    $0x35353535,%eax
    9f07:	35 35 35 35 35       	xor    $0x35353535,%eax
    9f0c:	35 35 35 35 35       	xor    $0x35353535,%eax
    9f11:	35 35 35 35 35       	xor    $0x35353535,%eax
    9f16:	35 35 35 35 35       	xor    $0x35353535,%eax
    9f1b:	35 35 35 35 35       	xor    $0x35353535,%eax
    9f20:	35 35 35 35 35       	xor    $0x35353535,%eax
    9f25:	35 35 35 35 35       	xor    $0x35353535,%eax
    9f2a:	35 35 35 35 35       	xor    $0x35353535,%eax
    9f2f:	35 35 35 35 35       	xor    $0x35353535,%eax
    9f34:	35 35 35 35 35       	xor    $0x35353535,%eax
    9f39:	35 35 35 35 35       	xor    $0x35353535,%eax
    9f3e:	35 35 35 35 35       	xor    $0x35353535,%eax
    9f43:	35 35 35 35 35       	xor    $0x35353535,%eax
    9f48:	35 35 35 35 35       	xor    $0x35353535,%eax
    9f4d:	35 35 35 35 35       	xor    $0x35353535,%eax
    9f52:	35 35 35 35 35       	xor    $0x35353535,%eax
    9f57:	35 35 35 35 35       	xor    $0x35353535,%eax
    9f5c:	35 35 35 35 35       	xor    $0x35353535,%eax
    9f61:	35 35 35 35 35       	xor    $0x35353535,%eax
    9f66:	35 35 35 35 35       	xor    $0x35353535,%eax
    9f6b:	35 35 35 35 35       	xor    $0x35353535,%eax
    9f70:	35 35 35 35 35       	xor    $0x35353535,%eax
    9f75:	35 35 35 35 35       	xor    $0x35353535,%eax
    9f7a:	35 35 35 35 35       	xor    $0x35353535,%eax
    9f7f:	35 35 35 35 35       	xor    $0x35353535,%eax
    9f84:	35 35 35 35 35       	xor    $0x35353535,%eax
    9f89:	35 35 35 35 35       	xor    $0x35353535,%eax
    9f8e:	35 35 35 35 35       	xor    $0x35353535,%eax
    9f93:	35 35 35 35 35       	xor    $0x35353535,%eax
    9f98:	35 35 35 35 35       	xor    $0x35353535,%eax
    9f9d:	35 35 35 35 35       	xor    $0x35353535,%eax
    9fa2:	35 35 35 35 35       	xor    $0x35353535,%eax
    9fa7:	35 35 35 35 35       	xor    $0x35353535,%eax
    9fac:	35 35 35 35 35       	xor    $0x35353535,%eax
    9fb1:	35 35 35 35 35       	xor    $0x35353535,%eax
    9fb6:	35 35 35 35 35       	xor    $0x35353535,%eax
    9fbb:	35 35 35 35 35       	xor    $0x35353535,%eax
    9fc0:	35 35 35 35 35       	xor    $0x35353535,%eax
    9fc5:	35 35 35 35 35       	xor    $0x35353535,%eax
    9fca:	35 35 35 35 35       	xor    $0x35353535,%eax
    9fcf:	35 35 35 35 35       	xor    $0x35353535,%eax
    9fd4:	35 35 35 35 35       	xor    $0x35353535,%eax
    9fd9:	35 35 35 35 35       	xor    $0x35353535,%eax
    9fde:	35 35 35 35 35       	xor    $0x35353535,%eax
    9fe3:	35 35 35 35 35       	xor    $0x35353535,%eax
    9fe8:	35 35 35 35 35       	xor    $0x35353535,%eax
    9fed:	35 35 35 35 35       	xor    $0x35353535,%eax
    9ff2:	35 35 35 35 35       	xor    $0x35353535,%eax
    9ff7:	35 35 35 35 35       	xor    $0x35353535,%eax
    9ffc:	35 35 35 35 35       	xor    $0x35353535,%eax
    a001:	35 35 35 35 35       	xor    $0x35353535,%eax
    a006:	35 35 35 35 35       	xor    $0x35353535,%eax
    a00b:	35 35 35 35 35       	xor    $0x35353535,%eax
    a010:	35 35 35 35 35       	xor    $0x35353535,%eax
    a015:	35 35 35 35 35       	xor    $0x35353535,%eax
    a01a:	35 35 35 35 35       	xor    $0x35353535,%eax
    a01f:	35 35 35 35 35       	xor    $0x35353535,%eax
    a024:	35 35 35 35 35       	xor    $0x35353535,%eax
    a029:	35 35 35 35 35       	xor    $0x35353535,%eax
    a02e:	35 35 35 35 35       	xor    $0x35353535,%eax
    a033:	35 35 35 35 35       	xor    $0x35353535,%eax
    a038:	35 35 35 35 35       	xor    $0x35353535,%eax
    a03d:	35 35 35 35 35       	xor    $0x35353535,%eax
    a042:	35 35 35 35 35       	xor    $0x35353535,%eax
    a047:	35 35 35 35 35       	xor    $0x35353535,%eax
    a04c:	35 35 35 35 35       	xor    $0x35353535,%eax
    a051:	35 35 35 35 35       	xor    $0x35353535,%eax
    a056:	35 35 35 35 35       	xor    $0x35353535,%eax
    a05b:	35 35 35 35 35       	xor    $0x35353535,%eax
    a060:	35 35 35 35 35       	xor    $0x35353535,%eax
    a065:	35 35 35 35 35       	xor    $0x35353535,%eax
    a06a:	35 35 35 35 35       	xor    $0x35353535,%eax
    a06f:	35 35 35 35 35       	xor    $0x35353535,%eax
    a074:	35 35 35 35 35       	xor    $0x35353535,%eax
    a079:	35 35 35 35 35       	xor    $0x35353535,%eax
    a07e:	35 35 35 35 35       	xor    $0x35353535,%eax
    a083:	35 35 35 35 35       	xor    $0x35353535,%eax
    a088:	35 35 35 35 35       	xor    $0x35353535,%eax
    a08d:	35 35 35 35 35       	xor    $0x35353535,%eax
    a092:	35 35 35 35 35       	xor    $0x35353535,%eax
    a097:	35 35 35 35 35       	xor    $0x35353535,%eax
    a09c:	35 35 35 35 35       	xor    $0x35353535,%eax
    a0a1:	35 35 35 35 35       	xor    $0x35353535,%eax
    a0a6:	35 35 35 35 35       	xor    $0x35353535,%eax
    a0ab:	35 35 35 35 35       	xor    $0x35353535,%eax
    a0b0:	35 35 35 35 35       	xor    $0x35353535,%eax
    a0b5:	35 35 35 35 35       	xor    $0x35353535,%eax
    a0ba:	35 35 35 35 35       	xor    $0x35353535,%eax
    a0bf:	35 35 35 35 35       	xor    $0x35353535,%eax
    a0c4:	35 35 35 35 35       	xor    $0x35353535,%eax
    a0c9:	35 35 35 35 35       	xor    $0x35353535,%eax
    a0ce:	35 35 35 35 35       	xor    $0x35353535,%eax
    a0d3:	35 35 35 35 35       	xor    $0x35353535,%eax
    a0d8:	35 35 35 35 35       	xor    $0x35353535,%eax
    a0dd:	35 35 35 35 35       	xor    $0x35353535,%eax
    a0e2:	35 35 35 35 35       	xor    $0x35353535,%eax
    a0e7:	35 35 35 35 35       	xor    $0x35353535,%eax
    a0ec:	35 35 35 35 35       	xor    $0x35353535,%eax
    a0f1:	35 35 35 35 35       	xor    $0x35353535,%eax
    a0f6:	35 35 35 35 35       	xor    $0x35353535,%eax
    a0fb:	35 35 35 35 35       	xor    $0x35353535,%eax
    a100:	35 35 35 35 35       	xor    $0x35353535,%eax
    a105:	35 35 35 35 35       	xor    $0x35353535,%eax
    a10a:	35 35 35 35 35       	xor    $0x35353535,%eax
    a10f:	35 35 35 35 35       	xor    $0x35353535,%eax
    a114:	35 35 35 35 35       	xor    $0x35353535,%eax
    a119:	35 35 35 35 35       	xor    $0x35353535,%eax
    a11e:	35 35 35 35 35       	xor    $0x35353535,%eax
    a123:	35 35 35 35 35       	xor    $0x35353535,%eax
    a128:	35 35 35 35 35       	xor    $0x35353535,%eax
    a12d:	35 35 35 35 35       	xor    $0x35353535,%eax
    a132:	35 35 35 35 35       	xor    $0x35353535,%eax
    a137:	35 35 35 35 35       	xor    $0x35353535,%eax
    a13c:	35 35 35 35 35       	xor    $0x35353535,%eax
    a141:	35 35 35 35 35       	xor    $0x35353535,%eax
    a146:	35 35 35 35 35       	xor    $0x35353535,%eax
    a14b:	35 35 35 35 35       	xor    $0x35353535,%eax
    a150:	35 35 35 35 35       	xor    $0x35353535,%eax
    a155:	35 35 35 35 35       	xor    $0x35353535,%eax
    a15a:	35 35 35 35 35       	xor    $0x35353535,%eax
    a15f:	35 35 35 35 35       	xor    $0x35353535,%eax
    a164:	35 35 35 35 35       	xor    $0x35353535,%eax
    a169:	35 35 35 35 35       	xor    $0x35353535,%eax
    a16e:	35 35 35 35 35       	xor    $0x35353535,%eax
    a173:	35 35 35 35 35       	xor    $0x35353535,%eax
    a178:	35 35 35 35 35       	xor    $0x35353535,%eax
    a17d:	35 35 35 35 35       	xor    $0x35353535,%eax
    a182:	35 35 35 35 35       	xor    $0x35353535,%eax
    a187:	35 35 35 35 35       	xor    $0x35353535,%eax
    a18c:	35 35 35 35 35       	xor    $0x35353535,%eax
    a191:	35 35 35 35 35       	xor    $0x35353535,%eax
    a196:	35 35 35 35 35       	xor    $0x35353535,%eax
    a19b:	35 35 35 35 35       	xor    $0x35353535,%eax
    a1a0:	35 35 35 35 35       	xor    $0x35353535,%eax
    a1a5:	35 35 35 35 35       	xor    $0x35353535,%eax
    a1aa:	35 35 35 35 35       	xor    $0x35353535,%eax
    a1af:	35 35 35 35 35       	xor    $0x35353535,%eax
    a1b4:	35 35 35 35 35       	xor    $0x35353535,%eax
    a1b9:	35 35 35 35 35       	xor    $0x35353535,%eax
    a1be:	35 35 35 35 35       	xor    $0x35353535,%eax
    a1c3:	35 35 35 35 35       	xor    $0x35353535,%eax
    a1c8:	35 35 35 35 35       	xor    $0x35353535,%eax
    a1cd:	35 35 35 35 35       	xor    $0x35353535,%eax
    a1d2:	35 35 35 35 35       	xor    $0x35353535,%eax
    a1d7:	35 35 35 35 35       	xor    $0x35353535,%eax
    a1dc:	35 35 35 35 35       	xor    $0x35353535,%eax
    a1e1:	35 35 35 35 35       	xor    $0x35353535,%eax
    a1e6:	35 35 35 35 35       	xor    $0x35353535,%eax
    a1eb:	35 35 35 35 35       	xor    $0x35353535,%eax
    a1f0:	35 35 35 35 35       	xor    $0x35353535,%eax
    a1f5:	35 35 35 35 35       	xor    $0x35353535,%eax
    a1fa:	35 35 35 35 35       	xor    $0x35353535,%eax
    a1ff:	35 35 35 35 35       	xor    $0x35353535,%eax
    a204:	35 35 35 35 35       	xor    $0x35353535,%eax
    a209:	35 35 35 35 35       	xor    $0x35353535,%eax
    a20e:	35 35 35 35 35       	xor    $0x35353535,%eax
    a213:	35 35 35 35 35       	xor    $0x35353535,%eax
    a218:	35 35 35 35 35       	xor    $0x35353535,%eax
    a21d:	35 35 35 35 35       	xor    $0x35353535,%eax
    a222:	35 35 35 35 35       	xor    $0x35353535,%eax
    a227:	35 35 35 35 35       	xor    $0x35353535,%eax
    a22c:	35 35 35 35 35       	xor    $0x35353535,%eax
    a231:	35 35 35 35 35       	xor    $0x35353535,%eax
    a236:	35 35 35 35 35       	xor    $0x35353535,%eax
    a23b:	35 35 35 35 35       	xor    $0x35353535,%eax
    a240:	35 35 35 35 35       	xor    $0x35353535,%eax
    a245:	35 35 35 35 35       	xor    $0x35353535,%eax
    a24a:	35 35 35 35 35       	xor    $0x35353535,%eax
    a24f:	35 35 35 35 35       	xor    $0x35353535,%eax
    a254:	35 35 35 35 35       	xor    $0x35353535,%eax
    a259:	35 35 35 35 35       	xor    $0x35353535,%eax
    a25e:	35 35 35 35 35       	xor    $0x35353535,%eax
    a263:	35 35 35 35 35       	xor    $0x35353535,%eax
    a268:	35 35 35 35 35       	xor    $0x35353535,%eax
    a26d:	35 35 35 35 35       	xor    $0x35353535,%eax
    a272:	35 35 35 35 35       	xor    $0x35353535,%eax
    a277:	35 35 35 35 35       	xor    $0x35353535,%eax
    a27c:	35 35 35 35 35       	xor    $0x35353535,%eax
    a281:	35 35 35 35 35       	xor    $0x35353535,%eax
    a286:	35 35 35 35 35       	xor    $0x35353535,%eax
    a28b:	35 35 35 35 35       	xor    $0x35353535,%eax
    a290:	35 35 35 35 35       	xor    $0x35353535,%eax
    a295:	35 35 35 35 35       	xor    $0x35353535,%eax
    a29a:	35 35 35 35 35       	xor    $0x35353535,%eax
    a29f:	35 35 35 35 35       	xor    $0x35353535,%eax
    a2a4:	35 35 35 35 35       	xor    $0x35353535,%eax
    a2a9:	35 35 35 35 35       	xor    $0x35353535,%eax
    a2ae:	35 35 35 35 35       	xor    $0x35353535,%eax
    a2b3:	35 35 35 35 35       	xor    $0x35353535,%eax
    a2b8:	35 35 35 35 35       	xor    $0x35353535,%eax
    a2bd:	35 35 35 35 35       	xor    $0x35353535,%eax
    a2c2:	35 35 35 35 35       	xor    $0x35353535,%eax
    a2c7:	35 35 35 35 35       	xor    $0x35353535,%eax
    a2cc:	35 35 35 35 35       	xor    $0x35353535,%eax
    a2d1:	35 35 35 35 35       	xor    $0x35353535,%eax
    a2d6:	35 35 35 35 35       	xor    $0x35353535,%eax
    a2db:	35 35 35 35 35       	xor    $0x35353535,%eax
    a2e0:	35 35 35 35 35       	xor    $0x35353535,%eax
    a2e5:	35 35 35 35 35       	xor    $0x35353535,%eax
    a2ea:	35 35 35 35 35       	xor    $0x35353535,%eax
    a2ef:	35 35 35 35 35       	xor    $0x35353535,%eax
    a2f4:	35 35 35 35 35       	xor    $0x35353535,%eax
    a2f9:	35 35 35 35 35       	xor    $0x35353535,%eax
    a2fe:	35 35 35 35 35       	xor    $0x35353535,%eax
    a303:	35 35 35 35 35       	xor    $0x35353535,%eax
    a308:	35 35 35 35 35       	xor    $0x35353535,%eax
    a30d:	35 35 35 35 35       	xor    $0x35353535,%eax
    a312:	35 35 35 35 35       	xor    $0x35353535,%eax
    a317:	35 35 35 35 35       	xor    $0x35353535,%eax
    a31c:	35 35 35 35 35       	xor    $0x35353535,%eax
    a321:	35 35 35 35 35       	xor    $0x35353535,%eax
    a326:	35 35 35 35 35       	xor    $0x35353535,%eax
    a32b:	35 35 35 35 35       	xor    $0x35353535,%eax
    a330:	35 35 35 35 35       	xor    $0x35353535,%eax
    a335:	35 35 35 35 35       	xor    $0x35353535,%eax
    a33a:	35 35 35 35 35       	xor    $0x35353535,%eax
    a33f:	35 35 35 35 35       	xor    $0x35353535,%eax
    a344:	35 35 35 35 35       	xor    $0x35353535,%eax
    a349:	35 35 35 35 35       	xor    $0x35353535,%eax
    a34e:	35 35 35 35 35       	xor    $0x35353535,%eax
    a353:	35 35 35 35 35       	xor    $0x35353535,%eax
    a358:	35 35 35 35 35       	xor    $0x35353535,%eax
    a35d:	35 35 35 35 35       	xor    $0x35353535,%eax
    a362:	35 35 35 35 35       	xor    $0x35353535,%eax
    a367:	35 35 35 35 35       	xor    $0x35353535,%eax
    a36c:	35 35 35 35 35       	xor    $0x35353535,%eax
    a371:	35 35 35 35 35       	xor    $0x35353535,%eax
    a376:	35 35 35 35 35       	xor    $0x35353535,%eax
    a37b:	35 35 35 35 35       	xor    $0x35353535,%eax
    a380:	35 35 35 35 35       	xor    $0x35353535,%eax
    a385:	35 35 35 35 35       	xor    $0x35353535,%eax
    a38a:	35 35 35 35 35       	xor    $0x35353535,%eax
    a38f:	35 35 35 35 35       	xor    $0x35353535,%eax
    a394:	35 35 35 35 35       	xor    $0x35353535,%eax
    a399:	35 35 35 35 35       	xor    $0x35353535,%eax
    a39e:	35 35 35 35 35       	xor    $0x35353535,%eax
    a3a3:	35 35 35 35 35       	xor    $0x35353535,%eax
    a3a8:	35 35 35 35 35       	xor    $0x35353535,%eax
    a3ad:	35 35 35 35 35       	xor    $0x35353535,%eax
    a3b2:	35 35 35 35 35       	xor    $0x35353535,%eax
    a3b7:	35 35 35 35 35       	xor    $0x35353535,%eax
    a3bc:	35 35 35 35 35       	xor    $0x35353535,%eax
    a3c1:	35 35 35 35 35       	xor    $0x35353535,%eax
    a3c6:	35 35 35 35 35       	xor    $0x35353535,%eax
    a3cb:	35 35 35 35 35       	xor    $0x35353535,%eax
    a3d0:	35 35 35 35 35       	xor    $0x35353535,%eax
    a3d5:	35 35 35 35 35       	xor    $0x35353535,%eax
    a3da:	35 35 35 35 35       	xor    $0x35353535,%eax
    a3df:	35 35 35 35 35       	xor    $0x35353535,%eax
    a3e4:	35 35 35 35 35       	xor    $0x35353535,%eax
    a3e9:	35 35 35 35 35       	xor    $0x35353535,%eax
    a3ee:	35 35 35 35 35       	xor    $0x35353535,%eax
    a3f3:	35 35 35 35 35       	xor    $0x35353535,%eax
    a3f8:	35 35 35 35 35       	xor    $0x35353535,%eax
    a3fd:	35 35 35 35 35       	xor    $0x35353535,%eax
    a402:	35 35 35 35 35       	xor    $0x35353535,%eax
    a407:	35 35 35 35 35       	xor    $0x35353535,%eax
    a40c:	35 35 35 35 35       	xor    $0x35353535,%eax
    a411:	35 35 35 35 35       	xor    $0x35353535,%eax
    a416:	35 35 35 35 35       	xor    $0x35353535,%eax
    a41b:	35 35 35 35 35       	xor    $0x35353535,%eax
    a420:	35 35 35 35 35       	xor    $0x35353535,%eax
    a425:	35 35 35 35 35       	xor    $0x35353535,%eax
    a42a:	35 35 35 35 35       	xor    $0x35353535,%eax
    a42f:	35 35 35 35 35       	xor    $0x35353535,%eax
    a434:	35 35 35 35 35       	xor    $0x35353535,%eax
    a439:	35 35 35 35 35       	xor    $0x35353535,%eax
    a43e:	35 35 35 35 35       	xor    $0x35353535,%eax
    a443:	35 35 35 35 35       	xor    $0x35353535,%eax
    a448:	35 35 35 35 35       	xor    $0x35353535,%eax
    a44d:	35 35 35 35 35       	xor    $0x35353535,%eax
    a452:	35 35 35 35 35       	xor    $0x35353535,%eax
    a457:	35 35 35 35 35       	xor    $0x35353535,%eax
    a45c:	35 35 35 35 35       	xor    $0x35353535,%eax
    a461:	35 35 35 35 35       	xor    $0x35353535,%eax
    a466:	35 35 35 35 35       	xor    $0x35353535,%eax
    a46b:	35 35 35 35 35       	xor    $0x35353535,%eax
    a470:	35 35 35 35 35       	xor    $0x35353535,%eax
    a475:	35 35 35 35 35       	xor    $0x35353535,%eax
    a47a:	35 35 35 35 35       	xor    $0x35353535,%eax
    a47f:	35 35 35 35 35       	xor    $0x35353535,%eax
    a484:	35 35 35 35 35       	xor    $0x35353535,%eax
    a489:	35 35 35 35 35       	xor    $0x35353535,%eax
    a48e:	35 35 35 35 35       	xor    $0x35353535,%eax
    a493:	35 35 35 35 35       	xor    $0x35353535,%eax
    a498:	35 35 35 35 35       	xor    $0x35353535,%eax
    a49d:	35 35 35 35 35       	xor    $0x35353535,%eax
    a4a2:	35 35 35 35 35       	xor    $0x35353535,%eax
    a4a7:	35 35 35 35 35       	xor    $0x35353535,%eax
    a4ac:	35 35 35 35 35       	xor    $0x35353535,%eax
    a4b1:	35 35 35 35 35       	xor    $0x35353535,%eax
    a4b6:	35 35 35 35 35       	xor    $0x35353535,%eax
    a4bb:	35 35 35 35 35       	xor    $0x35353535,%eax
    a4c0:	35 35 35 35 35       	xor    $0x35353535,%eax
    a4c5:	35 35 35 35 35       	xor    $0x35353535,%eax
    a4ca:	35 35 35 35 35       	xor    $0x35353535,%eax
    a4cf:	35 35 35 35 35       	xor    $0x35353535,%eax
    a4d4:	35 35 35 35 35       	xor    $0x35353535,%eax
    a4d9:	35 35 35 35 35       	xor    $0x35353535,%eax
    a4de:	35 35 35 35 35       	xor    $0x35353535,%eax
    a4e3:	35 35 35 35 35       	xor    $0x35353535,%eax
    a4e8:	35 35 35 35 35       	xor    $0x35353535,%eax
    a4ed:	35 35 35 35 35       	xor    $0x35353535,%eax
    a4f2:	35 35 35 35 35       	xor    $0x35353535,%eax
    a4f7:	35 35 35 35 35       	xor    $0x35353535,%eax
    a4fc:	35 35 35 35 35       	xor    $0x35353535,%eax
    a501:	35 35 35 35 35       	xor    $0x35353535,%eax
    a506:	35 35 35 35 35       	xor    $0x35353535,%eax
    a50b:	35 35 35 35 35       	xor    $0x35353535,%eax
    a510:	35 35 35 35 35       	xor    $0x35353535,%eax
    a515:	35 35 35 35 35       	xor    $0x35353535,%eax
    a51a:	35 35 35 35 35       	xor    $0x35353535,%eax
    a51f:	35 35 35 35 35       	xor    $0x35353535,%eax
    a524:	35 35 35 35 35       	xor    $0x35353535,%eax
    a529:	35 35 35 35 35       	xor    $0x35353535,%eax
    a52e:	35 35 35 35 35       	xor    $0x35353535,%eax
    a533:	35 35 35 35 35       	xor    $0x35353535,%eax
    a538:	35 35 35 35 35       	xor    $0x35353535,%eax
    a53d:	35 35 35 35 35       	xor    $0x35353535,%eax
    a542:	35 35 35 35 35       	xor    $0x35353535,%eax
    a547:	35 35 35 35 35       	xor    $0x35353535,%eax
    a54c:	35 35 35 35 35       	xor    $0x35353535,%eax
    a551:	35 35 35 35 35       	xor    $0x35353535,%eax
    a556:	35 35 35 35 35       	xor    $0x35353535,%eax
    a55b:	35 35 35 35 35       	xor    $0x35353535,%eax
    a560:	35 35 35 35 35       	xor    $0x35353535,%eax
    a565:	35 35 35 35 35       	xor    $0x35353535,%eax
    a56a:	35 35 35 35 35       	xor    $0x35353535,%eax
    a56f:	35 35 35 35 35       	xor    $0x35353535,%eax
    a574:	35 35 35 35 35       	xor    $0x35353535,%eax
    a579:	35 35 35 35 35       	xor    $0x35353535,%eax
    a57e:	35 35 35 35 35       	xor    $0x35353535,%eax
    a583:	35 35 35 35 35       	xor    $0x35353535,%eax
    a588:	35 35 35 35 35       	xor    $0x35353535,%eax
    a58d:	35 35 35 35 35       	xor    $0x35353535,%eax
    a592:	35 35 35 35 35       	xor    $0x35353535,%eax
    a597:	35 35 35 35 35       	xor    $0x35353535,%eax
    a59c:	35 35 35 35 35       	xor    $0x35353535,%eax
    a5a1:	35 35 35 35 35       	xor    $0x35353535,%eax
    a5a6:	35 35 35 35 35       	xor    $0x35353535,%eax
    a5ab:	35 35 35 35 35       	xor    $0x35353535,%eax
    a5b0:	35 35 35 35 35       	xor    $0x35353535,%eax
    a5b5:	35 35 35 35 35       	xor    $0x35353535,%eax
    a5ba:	35 35 35 35 35       	xor    $0x35353535,%eax
    a5bf:	35 35 35 35 35       	xor    $0x35353535,%eax
    a5c4:	35 35 35 35 35       	xor    $0x35353535,%eax
    a5c9:	35 35 35 35 35       	xor    $0x35353535,%eax
    a5ce:	35 35 35 35 35       	xor    $0x35353535,%eax
    a5d3:	35 35 35 35 35       	xor    $0x35353535,%eax
    a5d8:	35 35 35 35 35       	xor    $0x35353535,%eax
    a5dd:	35 35 35 35 35       	xor    $0x35353535,%eax
    a5e2:	35 35 35 35 35       	xor    $0x35353535,%eax
    a5e7:	35 35 35 35 35       	xor    $0x35353535,%eax
    a5ec:	35 35 35 35 35       	xor    $0x35353535,%eax
    a5f1:	35 35 35 35 35       	xor    $0x35353535,%eax
    a5f6:	35 35 35 35 35       	xor    $0x35353535,%eax
    a5fb:	35 35 35 35 35       	xor    $0x35353535,%eax
    a600:	35 35 35 35 35       	xor    $0x35353535,%eax
    a605:	35 35 35 35 35       	xor    $0x35353535,%eax
    a60a:	35 35 35 35 35       	xor    $0x35353535,%eax
    a60f:	35 35 35 35 35       	xor    $0x35353535,%eax
    a614:	35 35 35 35 35       	xor    $0x35353535,%eax
    a619:	35 35 35 35 35       	xor    $0x35353535,%eax
    a61e:	35 35 35 35 35       	xor    $0x35353535,%eax
    a623:	35 35 35 35 35       	xor    $0x35353535,%eax
    a628:	35 35 35 35 35       	xor    $0x35353535,%eax
    a62d:	35 35 35 35 35       	xor    $0x35353535,%eax
    a632:	35 35 35 35 35       	xor    $0x35353535,%eax
    a637:	35 35 35 35 35       	xor    $0x35353535,%eax
    a63c:	35 35 35 35 35       	xor    $0x35353535,%eax
    a641:	35 35 35 35 35       	xor    $0x35353535,%eax
    a646:	35 35 35 35 35       	xor    $0x35353535,%eax
    a64b:	35 35 35 35 35       	xor    $0x35353535,%eax
    a650:	35 35 35 35 35       	xor    $0x35353535,%eax
    a655:	35 35 35 35 35       	xor    $0x35353535,%eax
    a65a:	35 35 35 35 35       	xor    $0x35353535,%eax
    a65f:	35 35 35 35 35       	xor    $0x35353535,%eax
    a664:	35 35 35 35 35       	xor    $0x35353535,%eax
    a669:	35 35 35 35 35       	xor    $0x35353535,%eax
    a66e:	35 35 35 35 35       	xor    $0x35353535,%eax
    a673:	35 35 35 35 35       	xor    $0x35353535,%eax
    a678:	35 35 35 35 35       	xor    $0x35353535,%eax
    a67d:	35 35 35 35 35       	xor    $0x35353535,%eax
    a682:	35 35 35 35 35       	xor    $0x35353535,%eax
    a687:	35 35 35 35 35       	xor    $0x35353535,%eax
    a68c:	35 35 35 35 35       	xor    $0x35353535,%eax
    a691:	35 35 35 35 35       	xor    $0x35353535,%eax
    a696:	35 35 35 35 35       	xor    $0x35353535,%eax
    a69b:	35 35 35 35 35       	xor    $0x35353535,%eax
    a6a0:	35 35 35 35 35       	xor    $0x35353535,%eax
    a6a5:	35 35 35 35 35       	xor    $0x35353535,%eax
    a6aa:	35 35 35 35 35       	xor    $0x35353535,%eax
    a6af:	35 35 35 35 35       	xor    $0x35353535,%eax
    a6b4:	35 35 35 35 35       	xor    $0x35353535,%eax
    a6b9:	35 35 35 35 35       	xor    $0x35353535,%eax
    a6be:	35 35 35 35 35       	xor    $0x35353535,%eax
    a6c3:	35 35 35 35 35       	xor    $0x35353535,%eax
    a6c8:	35 35 35 35 35       	xor    $0x35353535,%eax
    a6cd:	35 35 35 35 35       	xor    $0x35353535,%eax
    a6d2:	35 35 35 35 35       	xor    $0x35353535,%eax
    a6d7:	35 35 35 35 35       	xor    $0x35353535,%eax
    a6dc:	35 35 35 35 35       	xor    $0x35353535,%eax
    a6e1:	35 35 35 35 35       	xor    $0x35353535,%eax
    a6e6:	35 35 35 35 35       	xor    $0x35353535,%eax
    a6eb:	35 35 35 35 35       	xor    $0x35353535,%eax
    a6f0:	35 35 35 35 35       	xor    $0x35353535,%eax
    a6f5:	35 35 35 35 35       	xor    $0x35353535,%eax
    a6fa:	35 35 35 35 35       	xor    $0x35353535,%eax
    a6ff:	35 35 35 35 35       	xor    $0x35353535,%eax
    a704:	35 35 35 35 35       	xor    $0x35353535,%eax
    a709:	35 35 35 35 35       	xor    $0x35353535,%eax
    a70e:	35 35 35 35 35       	xor    $0x35353535,%eax
    a713:	35 35 35 35 35       	xor    $0x35353535,%eax
    a718:	35 35 35 35 35       	xor    $0x35353535,%eax
    a71d:	35 35 35 35 35       	xor    $0x35353535,%eax
    a722:	35 35 35 35 35       	xor    $0x35353535,%eax
    a727:	35 35 35 35 35       	xor    $0x35353535,%eax
    a72c:	35 35 35 35 35       	xor    $0x35353535,%eax
    a731:	35 35 35 35 35       	xor    $0x35353535,%eax
    a736:	35 35 35 35 35       	xor    $0x35353535,%eax
    a73b:	35 35 35 35 35       	xor    $0x35353535,%eax
    a740:	35 35 35 35 35       	xor    $0x35353535,%eax
    a745:	35 35 35 35 35       	xor    $0x35353535,%eax
    a74a:	35 35 35 35 35       	xor    $0x35353535,%eax
    a74f:	35 35 35 35 35       	xor    $0x35353535,%eax
    a754:	35 35 35 35 35       	xor    $0x35353535,%eax
    a759:	35 35 35 35 35       	xor    $0x35353535,%eax
    a75e:	35 35 35 35 35       	xor    $0x35353535,%eax
    a763:	35 35 35 35 35       	xor    $0x35353535,%eax
    a768:	35 35 35 35 35       	xor    $0x35353535,%eax
    a76d:	35 35 35 35 35       	xor    $0x35353535,%eax
    a772:	35 35 35 35 35       	xor    $0x35353535,%eax
    a777:	35 35 35 35 35       	xor    $0x35353535,%eax
    a77c:	35 35 35 35 35       	xor    $0x35353535,%eax
    a781:	35 35 35 35 35       	xor    $0x35353535,%eax
    a786:	35 35 35 35 35       	xor    $0x35353535,%eax
    a78b:	35 35 35 35 35       	xor    $0x35353535,%eax
    a790:	35 35 35 35 35       	xor    $0x35353535,%eax
    a795:	35 35 35 35 35       	xor    $0x35353535,%eax
    a79a:	35 35 35 35 35       	xor    $0x35353535,%eax
    a79f:	35 35 35 35 35       	xor    $0x35353535,%eax
    a7a4:	35 35 35 35 35       	xor    $0x35353535,%eax
    a7a9:	35 35 35 35 35       	xor    $0x35353535,%eax
    a7ae:	35 35 35 35 35       	xor    $0x35353535,%eax
    a7b3:	35 35 35 35 35       	xor    $0x35353535,%eax
    a7b8:	35 35 35 35 35       	xor    $0x35353535,%eax
    a7bd:	35 35 35 35 35       	xor    $0x35353535,%eax
    a7c2:	35 35 35 35 35       	xor    $0x35353535,%eax
    a7c7:	35 35 35 35 35       	xor    $0x35353535,%eax
    a7cc:	35 35 35 35 35       	xor    $0x35353535,%eax
    a7d1:	35 35 35 35 35       	xor    $0x35353535,%eax
    a7d6:	35 35 35 35 35       	xor    $0x35353535,%eax
    a7db:	35 35 35 35 35       	xor    $0x35353535,%eax
    a7e0:	35 35 35 35 35       	xor    $0x35353535,%eax
    a7e5:	35 35 35 35 35       	xor    $0x35353535,%eax
    a7ea:	35 35 35 35 35       	xor    $0x35353535,%eax
    a7ef:	35 35 35 35 35       	xor    $0x35353535,%eax
    a7f4:	35 35 35 35 35       	xor    $0x35353535,%eax
    a7f9:	35 35 35 35 35       	xor    $0x35353535,%eax
    a7fe:	35 35 35 35 35       	xor    $0x35353535,%eax
    a803:	35 35 35 35 35       	xor    $0x35353535,%eax
    a808:	35 35 35 35 35       	xor    $0x35353535,%eax
    a80d:	35 35 35 35 35       	xor    $0x35353535,%eax
    a812:	35 35 35 35 35       	xor    $0x35353535,%eax
    a817:	35 35 35 35 35       	xor    $0x35353535,%eax
    a81c:	35 35 35 35 35       	xor    $0x35353535,%eax
    a821:	35 35 35 35 35       	xor    $0x35353535,%eax
    a826:	35 35 35 35 35       	xor    $0x35353535,%eax
    a82b:	35 35 35 35 35       	xor    $0x35353535,%eax
    a830:	35 35 35 35 35       	xor    $0x35353535,%eax
    a835:	35 35 35 35 35       	xor    $0x35353535,%eax
    a83a:	35 35 35 35 35       	xor    $0x35353535,%eax
    a83f:	35 35 35 35 35       	xor    $0x35353535,%eax
    a844:	35 35 35 35 35       	xor    $0x35353535,%eax
    a849:	35 35 35 35 35       	xor    $0x35353535,%eax
    a84e:	35 35 35 35 35       	xor    $0x35353535,%eax
    a853:	35 35 35 35 35       	xor    $0x35353535,%eax
    a858:	35 35 35 35 35       	xor    $0x35353535,%eax
    a85d:	35 35 35 35 35       	xor    $0x35353535,%eax
    a862:	35 35 35 35 35       	xor    $0x35353535,%eax
    a867:	35 35 35 35 35       	xor    $0x35353535,%eax
    a86c:	35 35 35 35 35       	xor    $0x35353535,%eax
    a871:	35 35 35 35 35       	xor    $0x35353535,%eax
    a876:	35 35 35 35 35       	xor    $0x35353535,%eax
    a87b:	35 35 35 35 35       	xor    $0x35353535,%eax
    a880:	35 35 35 35 35       	xor    $0x35353535,%eax
    a885:	35 35 35 35 35       	xor    $0x35353535,%eax
    a88a:	35 35 35 35 35       	xor    $0x35353535,%eax
    a88f:	35 35 35 35 35       	xor    $0x35353535,%eax
    a894:	35 35 35 35 35       	xor    $0x35353535,%eax
    a899:	35 35 35 35 35       	xor    $0x35353535,%eax
    a89e:	35 35 35 35 35       	xor    $0x35353535,%eax
    a8a3:	35 35 35 35 35       	xor    $0x35353535,%eax
    a8a8:	35 35 35 35 35       	xor    $0x35353535,%eax
    a8ad:	35 35 35 35 35       	xor    $0x35353535,%eax
    a8b2:	35 35 35 35 35       	xor    $0x35353535,%eax
    a8b7:	35 35 35 35 35       	xor    $0x35353535,%eax
    a8bc:	35 35 35 35 35       	xor    $0x35353535,%eax
    a8c1:	35 35 35 35 35       	xor    $0x35353535,%eax
    a8c6:	35 35 35 35 35       	xor    $0x35353535,%eax
    a8cb:	35 35 35 35 35       	xor    $0x35353535,%eax
    a8d0:	35 35 35 35 35       	xor    $0x35353535,%eax
    a8d5:	35 35 35 35 35       	xor    $0x35353535,%eax
    a8da:	35 35 35 35 35       	xor    $0x35353535,%eax
    a8df:	35 35 35 35 35       	xor    $0x35353535,%eax
    a8e4:	35 35 35 35 35       	xor    $0x35353535,%eax
    a8e9:	35 35 35 35 35       	xor    $0x35353535,%eax
    a8ee:	35 35 35 35 35       	xor    $0x35353535,%eax
    a8f3:	35 35 35 35 35       	xor    $0x35353535,%eax
    a8f8:	35 35 35 35 35       	xor    $0x35353535,%eax
    a8fd:	35 35 35 35 35       	xor    $0x35353535,%eax
    a902:	35 35 35 35 35       	xor    $0x35353535,%eax
    a907:	35 35 35 35 35       	xor    $0x35353535,%eax
    a90c:	35 35 35 35 35       	xor    $0x35353535,%eax
    a911:	35 35 35 35 35       	xor    $0x35353535,%eax
    a916:	35 35 35 35 35       	xor    $0x35353535,%eax
    a91b:	35 35 35 35 35       	xor    $0x35353535,%eax
    a920:	35 35 35 35 35       	xor    $0x35353535,%eax
    a925:	35 35 35 35 35       	xor    $0x35353535,%eax
    a92a:	35 35 35 35 35       	xor    $0x35353535,%eax
    a92f:	35 35 35 35 35       	xor    $0x35353535,%eax
    a934:	35 35 35 35 35       	xor    $0x35353535,%eax
    a939:	35 35 35 35 35       	xor    $0x35353535,%eax
    a93e:	35 35 35 35 35       	xor    $0x35353535,%eax
    a943:	35 35 35 35 35       	xor    $0x35353535,%eax
    a948:	35 35 35 35 35       	xor    $0x35353535,%eax
    a94d:	35 35 35 35 35       	xor    $0x35353535,%eax
    a952:	35 35 35 35 35       	xor    $0x35353535,%eax
    a957:	35 35 35 35 35       	xor    $0x35353535,%eax
    a95c:	35 35 35 35 35       	xor    $0x35353535,%eax
    a961:	35 35 35 35 35       	xor    $0x35353535,%eax
    a966:	35 35 35 35 35       	xor    $0x35353535,%eax
    a96b:	35 35 35 35 35       	xor    $0x35353535,%eax
    a970:	35 35 35 35 35       	xor    $0x35353535,%eax
    a975:	35 35 35 35 35       	xor    $0x35353535,%eax
    a97a:	35 35 35 35 35       	xor    $0x35353535,%eax
    a97f:	35 35 35 35 35       	xor    $0x35353535,%eax
    a984:	35 35 35 35 35       	xor    $0x35353535,%eax
    a989:	35 35 35 35 35       	xor    $0x35353535,%eax
    a98e:	35 35 35 35 35       	xor    $0x35353535,%eax
    a993:	35 35 35 35 35       	xor    $0x35353535,%eax
    a998:	35 35 35 35 35       	xor    $0x35353535,%eax
    a99d:	35 35 35 35 35       	xor    $0x35353535,%eax
    a9a2:	35 35 35 35 35       	xor    $0x35353535,%eax
    a9a7:	35 35 35 35 35       	xor    $0x35353535,%eax
    a9ac:	35 35 35 35 35       	xor    $0x35353535,%eax
    a9b1:	35 35 35 35 35       	xor    $0x35353535,%eax
    a9b6:	35 35 35 35 35       	xor    $0x35353535,%eax
    a9bb:	35 35 35 35 35       	xor    $0x35353535,%eax
    a9c0:	35 35 35 35 35       	xor    $0x35353535,%eax
    a9c5:	35 35 35 35 35       	xor    $0x35353535,%eax
    a9ca:	35 35 35 35 35       	xor    $0x35353535,%eax
    a9cf:	35 35 35 35 35       	xor    $0x35353535,%eax
    a9d4:	35 35 35 35 35       	xor    $0x35353535,%eax
    a9d9:	35 35 35 35 35       	xor    $0x35353535,%eax
    a9de:	35 35 35 35 35       	xor    $0x35353535,%eax
    a9e3:	35 35 35 35 35       	xor    $0x35353535,%eax
    a9e8:	35 35 35 35 35       	xor    $0x35353535,%eax
    a9ed:	35 35 35 35 35       	xor    $0x35353535,%eax
    a9f2:	35 35 35 35 35       	xor    $0x35353535,%eax
    a9f7:	35 35 35 35 35       	xor    $0x35353535,%eax
    a9fc:	35 35 35 35 35       	xor    $0x35353535,%eax
    aa01:	35 35 35 35 35       	xor    $0x35353535,%eax
    aa06:	35 35 35 35 35       	xor    $0x35353535,%eax
    aa0b:	35 35 35 35 35       	xor    $0x35353535,%eax
    aa10:	35 35 35 35 35       	xor    $0x35353535,%eax
    aa15:	35 35 35 35 35       	xor    $0x35353535,%eax
    aa1a:	35 35 35 35 35       	xor    $0x35353535,%eax
    aa1f:	35 35 35 35 35       	xor    $0x35353535,%eax
    aa24:	35 35 35 35 35       	xor    $0x35353535,%eax
    aa29:	35 35 35 35 35       	xor    $0x35353535,%eax
    aa2e:	35 35 35 35 35       	xor    $0x35353535,%eax
    aa33:	35 35 35 35 35       	xor    $0x35353535,%eax
    aa38:	35 35 35 35 35       	xor    $0x35353535,%eax
    aa3d:	35 35 35 35 35       	xor    $0x35353535,%eax
    aa42:	35 35 35 35 35       	xor    $0x35353535,%eax
    aa47:	35 35 35 35 35       	xor    $0x35353535,%eax
    aa4c:	35 35 35 35 35       	xor    $0x35353535,%eax
    aa51:	35 35 35 35 35       	xor    $0x35353535,%eax
    aa56:	35 35 35 35 35       	xor    $0x35353535,%eax
    aa5b:	35 35 35 35 35       	xor    $0x35353535,%eax
    aa60:	35 35 35 35 35       	xor    $0x35353535,%eax
    aa65:	35 35 35 35 35       	xor    $0x35353535,%eax
    aa6a:	35 35 35 35 35       	xor    $0x35353535,%eax
    aa6f:	35 35 35 35 35       	xor    $0x35353535,%eax
    aa74:	35 35 35 35 35       	xor    $0x35353535,%eax
    aa79:	35 35 35 35 35       	xor    $0x35353535,%eax
    aa7e:	35 35 35 35 35       	xor    $0x35353535,%eax
    aa83:	35 35 35 35 35       	xor    $0x35353535,%eax
    aa88:	35 35 35 35 35       	xor    $0x35353535,%eax
    aa8d:	35 35 35 35 35       	xor    $0x35353535,%eax
    aa92:	35 35 35 35 35       	xor    $0x35353535,%eax
    aa97:	35 35 35 35 35       	xor    $0x35353535,%eax
    aa9c:	35 35 35 35 35       	xor    $0x35353535,%eax
    aaa1:	35 35 35 35 35       	xor    $0x35353535,%eax
    aaa6:	35 35 35 35 35       	xor    $0x35353535,%eax
    aaab:	35 35 35 35 35       	xor    $0x35353535,%eax
    aab0:	35 35 35 35 35       	xor    $0x35353535,%eax
    aab5:	35 35 35 35 35       	xor    $0x35353535,%eax
    aaba:	35 35 35 35 35       	xor    $0x35353535,%eax
    aabf:	35 35 35 35 35       	xor    $0x35353535,%eax
    aac4:	35 35 35 35 35       	xor    $0x35353535,%eax
    aac9:	35 35 35 35 35       	xor    $0x35353535,%eax
    aace:	35 35 35 35 35       	xor    $0x35353535,%eax
    aad3:	35 35 35 35 35       	xor    $0x35353535,%eax
    aad8:	35 35 35 35 35       	xor    $0x35353535,%eax
    aadd:	35 35 35 35 35       	xor    $0x35353535,%eax
    aae2:	35 35 35 35 35       	xor    $0x35353535,%eax
    aae7:	35 35 35 35 35       	xor    $0x35353535,%eax
    aaec:	35 35 35 35 35       	xor    $0x35353535,%eax
    aaf1:	35 35 35 35 35       	xor    $0x35353535,%eax
    aaf6:	35 35 35 35 35       	xor    $0x35353535,%eax
    aafb:	35 35 35 35 35       	xor    $0x35353535,%eax
    ab00:	35 35 35 35 35       	xor    $0x35353535,%eax
    ab05:	35 35 35 35 35       	xor    $0x35353535,%eax
    ab0a:	35 35 35 35 35       	xor    $0x35353535,%eax
    ab0f:	35 35 35 35 35       	xor    $0x35353535,%eax
    ab14:	35 35 35 35 35       	xor    $0x35353535,%eax
    ab19:	35 35 35 35 35       	xor    $0x35353535,%eax
    ab1e:	35 35 35 35 35       	xor    $0x35353535,%eax
    ab23:	35 35 35 35 35       	xor    $0x35353535,%eax
    ab28:	35 35 35 35 35       	xor    $0x35353535,%eax
    ab2d:	35 35 35 35 35       	xor    $0x35353535,%eax
    ab32:	35 35 35 35 35       	xor    $0x35353535,%eax
    ab37:	35 35 35 35 35       	xor    $0x35353535,%eax
    ab3c:	35 35 35 35 35       	xor    $0x35353535,%eax
    ab41:	35 35 35 35 35       	xor    $0x35353535,%eax
    ab46:	35 35 35 35 35       	xor    $0x35353535,%eax
    ab4b:	35 35 35 35 35       	xor    $0x35353535,%eax
    ab50:	35 35 35 35 35       	xor    $0x35353535,%eax
    ab55:	35 35 35 35 35       	xor    $0x35353535,%eax
    ab5a:	35 35 35 35 35       	xor    $0x35353535,%eax
    ab5f:	35 35 35 35 35       	xor    $0x35353535,%eax
    ab64:	35 35 35 35 35       	xor    $0x35353535,%eax
    ab69:	35 35 35 35 35       	xor    $0x35353535,%eax
    ab6e:	35 35 35 35 35       	xor    $0x35353535,%eax
    ab73:	35 35 35 35 35       	xor    $0x35353535,%eax
    ab78:	35 35 35 35 35       	xor    $0x35353535,%eax
    ab7d:	35 35 35 35 35       	xor    $0x35353535,%eax
    ab82:	35 35 35 35 35       	xor    $0x35353535,%eax
    ab87:	35 35 35 35 35       	xor    $0x35353535,%eax
    ab8c:	35 35 35 35 35       	xor    $0x35353535,%eax
    ab91:	35 35 35 35 35       	xor    $0x35353535,%eax
    ab96:	35 35 35 35 35       	xor    $0x35353535,%eax
    ab9b:	35 35 35 35 35       	xor    $0x35353535,%eax
    aba0:	35 35 35 35 35       	xor    $0x35353535,%eax
    aba5:	35 35 35 35 35       	xor    $0x35353535,%eax
    abaa:	35 35 35 35 35       	xor    $0x35353535,%eax
    abaf:	35 35 35 35 35       	xor    $0x35353535,%eax
    abb4:	35 35 35 35 35       	xor    $0x35353535,%eax
    abb9:	35 35 35 35 35       	xor    $0x35353535,%eax
    abbe:	35 35 35 35 35       	xor    $0x35353535,%eax
    abc3:	35 35 35 35 35       	xor    $0x35353535,%eax
    abc8:	35 35 35 35 35       	xor    $0x35353535,%eax
    abcd:	35 35 35 35 35       	xor    $0x35353535,%eax
    abd2:	35 35 35 35 35       	xor    $0x35353535,%eax
    abd7:	35 35 35 35 35       	xor    $0x35353535,%eax
    abdc:	35 35 35 35 35       	xor    $0x35353535,%eax
    abe1:	35 35 35 35 35       	xor    $0x35353535,%eax
    abe6:	35 35 35 35 35       	xor    $0x35353535,%eax
    abeb:	35 35 35 35 35       	xor    $0x35353535,%eax
    abf0:	35 35 35 35 35       	xor    $0x35353535,%eax
    abf5:	35 35 35 35 35       	xor    $0x35353535,%eax
    abfa:	35 35 35 35 35       	xor    $0x35353535,%eax
    abff:	35 35 35 35 35       	xor    $0x35353535,%eax
    ac04:	35 35 35 35 35       	xor    $0x35353535,%eax
    ac09:	35 35 35 35 35       	xor    $0x35353535,%eax
    ac0e:	35 35 35 35 35       	xor    $0x35353535,%eax
    ac13:	35 35 35 35 35       	xor    $0x35353535,%eax
    ac18:	35 35 35 35 35       	xor    $0x35353535,%eax
    ac1d:	35 35 35 35 35       	xor    $0x35353535,%eax
    ac22:	35 35 35 35 35       	xor    $0x35353535,%eax
    ac27:	35 35 35 35 35       	xor    $0x35353535,%eax
    ac2c:	35 35 35 35 35       	xor    $0x35353535,%eax
    ac31:	35 35 35 35 35       	xor    $0x35353535,%eax
    ac36:	35 35 35 35 35       	xor    $0x35353535,%eax
    ac3b:	35 35 35 35 35       	xor    $0x35353535,%eax
    ac40:	35 35 35 35 35       	xor    $0x35353535,%eax
    ac45:	35 35 35 35 35       	xor    $0x35353535,%eax
    ac4a:	35 35 35 35 35       	xor    $0x35353535,%eax
    ac4f:	35 35 35 35 35       	xor    $0x35353535,%eax
    ac54:	35 35 35 35 35       	xor    $0x35353535,%eax
    ac59:	35 35 35 35 35       	xor    $0x35353535,%eax
    ac5e:	35 35 35 35 35       	xor    $0x35353535,%eax
    ac63:	35 35 35 35 35       	xor    $0x35353535,%eax
    ac68:	35 35 35 35 35       	xor    $0x35353535,%eax
    ac6d:	35 35 35 35 35       	xor    $0x35353535,%eax
    ac72:	35 35 35 35 35       	xor    $0x35353535,%eax
    ac77:	35 35 35 35 35       	xor    $0x35353535,%eax
    ac7c:	35 35 35 35 35       	xor    $0x35353535,%eax
    ac81:	35 35 35 35 35       	xor    $0x35353535,%eax
    ac86:	35 35 35 35 35       	xor    $0x35353535,%eax
    ac8b:	35 35 35 35 35       	xor    $0x35353535,%eax
    ac90:	35 35 35 35 35       	xor    $0x35353535,%eax
    ac95:	35 35 35 35 35       	xor    $0x35353535,%eax
    ac9a:	35 35 35 35 35       	xor    $0x35353535,%eax
    ac9f:	35 35 35 35 35       	xor    $0x35353535,%eax
    aca4:	35 35 35 35 35       	xor    $0x35353535,%eax
    aca9:	35 35 35 35 35       	xor    $0x35353535,%eax
    acae:	35 35 35 35 35       	xor    $0x35353535,%eax
    acb3:	35 35 35 35 35       	xor    $0x35353535,%eax
    acb8:	35 35 35 35 35       	xor    $0x35353535,%eax
    acbd:	35 35 35 35 35       	xor    $0x35353535,%eax
    acc2:	35 35 35 35 35       	xor    $0x35353535,%eax
    acc7:	35 35 35 35 35       	xor    $0x35353535,%eax
    accc:	35 35 35 35 35       	xor    $0x35353535,%eax
    acd1:	35 35 35 35 35       	xor    $0x35353535,%eax
    acd6:	35 35 35 35 35       	xor    $0x35353535,%eax
    acdb:	35 35 35 35 35       	xor    $0x35353535,%eax
    ace0:	35 35 35 35 35       	xor    $0x35353535,%eax
    ace5:	35 35 35 35 35       	xor    $0x35353535,%eax
    acea:	35 35 35 35 35       	xor    $0x35353535,%eax
    acef:	35 35 35 35 35       	xor    $0x35353535,%eax
    acf4:	35 35 35 35 35       	xor    $0x35353535,%eax
    acf9:	35 35 35 35 35       	xor    $0x35353535,%eax
    acfe:	35 35 35 35 35       	xor    $0x35353535,%eax
    ad03:	35 35 35 35 35       	xor    $0x35353535,%eax
    ad08:	35 35 35 35 35       	xor    $0x35353535,%eax
    ad0d:	35 35 35 35 35       	xor    $0x35353535,%eax
    ad12:	35 35 35 35 35       	xor    $0x35353535,%eax
    ad17:	35 35 35 35 35       	xor    $0x35353535,%eax
    ad1c:	35 35 35 35 35       	xor    $0x35353535,%eax
    ad21:	35 35 35 35 35       	xor    $0x35353535,%eax
    ad26:	35 35 35 35 35       	xor    $0x35353535,%eax
    ad2b:	35 35 35 35 35       	xor    $0x35353535,%eax
    ad30:	35 35 35 35 35       	xor    $0x35353535,%eax
    ad35:	35 35 35 35 35       	xor    $0x35353535,%eax
    ad3a:	35 35 35 35 35       	xor    $0x35353535,%eax
    ad3f:	35 35 35 35 35       	xor    $0x35353535,%eax
    ad44:	35 35 35 35 35       	xor    $0x35353535,%eax
    ad49:	35 35 35 35 35       	xor    $0x35353535,%eax
    ad4e:	35 35 35 35 35       	xor    $0x35353535,%eax
    ad53:	35 35 35 35 35       	xor    $0x35353535,%eax
    ad58:	35 35 35 35 35       	xor    $0x35353535,%eax
    ad5d:	35 35 35 35 35       	xor    $0x35353535,%eax
    ad62:	35 35 35 35 35       	xor    $0x35353535,%eax
    ad67:	35 35 35 35 35       	xor    $0x35353535,%eax
    ad6c:	35 35 35 35 35       	xor    $0x35353535,%eax
    ad71:	35 35 35 35 35       	xor    $0x35353535,%eax
    ad76:	35 35 35 35 35       	xor    $0x35353535,%eax
    ad7b:	35 35 35 35 35       	xor    $0x35353535,%eax
    ad80:	35 35 35 35 35       	xor    $0x35353535,%eax
    ad85:	35 35 35 35 35       	xor    $0x35353535,%eax
    ad8a:	35 35 35 35 35       	xor    $0x35353535,%eax
    ad8f:	35 35 35 35 35       	xor    $0x35353535,%eax
    ad94:	35 35 35 35 35       	xor    $0x35353535,%eax
    ad99:	35 35 35 35 35       	xor    $0x35353535,%eax
    ad9e:	35 35 35 35 35       	xor    $0x35353535,%eax
    ada3:	35 35 35 35 35       	xor    $0x35353535,%eax
    ada8:	35 35 35 35 35       	xor    $0x35353535,%eax
    adad:	35 35 35 35 35       	xor    $0x35353535,%eax
    adb2:	35 35 35 35 35       	xor    $0x35353535,%eax
    adb7:	35 35 35 35 35       	xor    $0x35353535,%eax
    adbc:	35 35 35 35 35       	xor    $0x35353535,%eax
    adc1:	35 35 35 35 35       	xor    $0x35353535,%eax
    adc6:	35 35 35 35 35       	xor    $0x35353535,%eax
    adcb:	35 35 35 35 35       	xor    $0x35353535,%eax
    add0:	35 35 35 35 35       	xor    $0x35353535,%eax
    add5:	35 35 35 35 35       	xor    $0x35353535,%eax
    adda:	35 35 35 35 35       	xor    $0x35353535,%eax
    addf:	35 35 35 35 35       	xor    $0x35353535,%eax
    ade4:	35 35 35 35 35       	xor    $0x35353535,%eax
    ade9:	35 35 35 35 35       	xor    $0x35353535,%eax
    adee:	35 35 35 35 35       	xor    $0x35353535,%eax
    adf3:	35 35 35 35 35       	xor    $0x35353535,%eax
    adf8:	35 35 35 35 35       	xor    $0x35353535,%eax
    adfd:	35 35 35 35 35       	xor    $0x35353535,%eax
    ae02:	35 35 35 35 35       	xor    $0x35353535,%eax
    ae07:	35 35 35 35 35       	xor    $0x35353535,%eax
    ae0c:	35 35 35 35 35       	xor    $0x35353535,%eax
    ae11:	35 35 35 35 35       	xor    $0x35353535,%eax
    ae16:	35 35 35 35 35       	xor    $0x35353535,%eax
    ae1b:	35 35 35 35 35       	xor    $0x35353535,%eax
    ae20:	35 35 35 35 35       	xor    $0x35353535,%eax
    ae25:	35 35 35 35 35       	xor    $0x35353535,%eax
    ae2a:	35 35 35 35 35       	xor    $0x35353535,%eax
    ae2f:	35 35 35 35 35       	xor    $0x35353535,%eax
    ae34:	35 35 35 35 35       	xor    $0x35353535,%eax
    ae39:	35 35 35 35 35       	xor    $0x35353535,%eax
    ae3e:	35 35 35 35 35       	xor    $0x35353535,%eax
    ae43:	35 35 35 35 35       	xor    $0x35353535,%eax
    ae48:	35 35 35 35 35       	xor    $0x35353535,%eax
    ae4d:	35 35 35 35 35       	xor    $0x35353535,%eax
    ae52:	35 35 35 35 35       	xor    $0x35353535,%eax
    ae57:	35 35 35 35 35       	xor    $0x35353535,%eax
    ae5c:	35 35 35 35 35       	xor    $0x35353535,%eax
    ae61:	35 35 35 35 35       	xor    $0x35353535,%eax
    ae66:	35 35 35 35 35       	xor    $0x35353535,%eax
    ae6b:	35 35 35 35 35       	xor    $0x35353535,%eax
    ae70:	35 35 35 35 35       	xor    $0x35353535,%eax
    ae75:	35 35 35 35 35       	xor    $0x35353535,%eax
    ae7a:	35 35 35 35 35       	xor    $0x35353535,%eax
    ae7f:	35 35 35 35 35       	xor    $0x35353535,%eax
    ae84:	35 35 35 35 35       	xor    $0x35353535,%eax
    ae89:	35 35 35 35 35       	xor    $0x35353535,%eax
    ae8e:	35 35 35 35 35       	xor    $0x35353535,%eax
    ae93:	35 35 35 35 35       	xor    $0x35353535,%eax
    ae98:	35 35 35 35 35       	xor    $0x35353535,%eax
    ae9d:	35 35 35 35 35       	xor    $0x35353535,%eax
    aea2:	35 35 35 35 35       	xor    $0x35353535,%eax
    aea7:	35 35 35 35 35       	xor    $0x35353535,%eax
    aeac:	35 35 35 35 35       	xor    $0x35353535,%eax
    aeb1:	35 35 35 35 35       	xor    $0x35353535,%eax
    aeb6:	35 35 35 35 35       	xor    $0x35353535,%eax
    aebb:	35 35 35 35 35       	xor    $0x35353535,%eax
    aec0:	35 35 35 35 35       	xor    $0x35353535,%eax
    aec5:	35 35 35 35 35       	xor    $0x35353535,%eax
    aeca:	35 35 35 35 35       	xor    $0x35353535,%eax
    aecf:	35 35 35 35 35       	xor    $0x35353535,%eax
    aed4:	35 35 35 35 35       	xor    $0x35353535,%eax
    aed9:	35 35 35 35 35       	xor    $0x35353535,%eax
    aede:	35 35 35 35 35       	xor    $0x35353535,%eax
    aee3:	35 35 35 35 35       	xor    $0x35353535,%eax
    aee8:	35 35 35 35 35       	xor    $0x35353535,%eax
    aeed:	35 35 35 35 35       	xor    $0x35353535,%eax
    aef2:	35 35 35 35 35       	xor    $0x35353535,%eax
    aef7:	35 35 35 35 35       	xor    $0x35353535,%eax
    aefc:	35 35 35 35 35       	xor    $0x35353535,%eax
    af01:	35 35 35 35 35       	xor    $0x35353535,%eax
    af06:	35 35 35 35 35       	xor    $0x35353535,%eax
    af0b:	35 35 35 35 35       	xor    $0x35353535,%eax
    af10:	35 35 35 35 35       	xor    $0x35353535,%eax
    af15:	35 35 35 35 35       	xor    $0x35353535,%eax
    af1a:	35 35 35 35 35       	xor    $0x35353535,%eax
    af1f:	35 35 35 35 35       	xor    $0x35353535,%eax
    af24:	35 35 35 35 35       	xor    $0x35353535,%eax
    af29:	35 35 35 35 35       	xor    $0x35353535,%eax
    af2e:	35 35 35 35 35       	xor    $0x35353535,%eax
    af33:	35 35 35 35 35       	xor    $0x35353535,%eax
    af38:	35 35 35 35 35       	xor    $0x35353535,%eax
    af3d:	35 35 35 35 35       	xor    $0x35353535,%eax
    af42:	35 35 35 35 35       	xor    $0x35353535,%eax
    af47:	35 35 35 35 35       	xor    $0x35353535,%eax
    af4c:	35 35 35 35 35       	xor    $0x35353535,%eax
    af51:	35 35 35 35 35       	xor    $0x35353535,%eax
    af56:	35 35 35 35 35       	xor    $0x35353535,%eax
    af5b:	35 35 35 35 35       	xor    $0x35353535,%eax
    af60:	35 35 35 35 35       	xor    $0x35353535,%eax
    af65:	35 35 35 35 35       	xor    $0x35353535,%eax
    af6a:	35 35 35 35 35       	xor    $0x35353535,%eax
    af6f:	35 35 35 35 35       	xor    $0x35353535,%eax
    af74:	35 35 35 35 35       	xor    $0x35353535,%eax
    af79:	35 35 35 35 35       	xor    $0x35353535,%eax
    af7e:	35 35 35 35 35       	xor    $0x35353535,%eax
    af83:	35 35 35 35 35       	xor    $0x35353535,%eax
    af88:	35 35 35 35 35       	xor    $0x35353535,%eax
    af8d:	35 35 35 35 35       	xor    $0x35353535,%eax
    af92:	35 35 35 35 35       	xor    $0x35353535,%eax
    af97:	35 35 35 35 35       	xor    $0x35353535,%eax
    af9c:	35 35 35 35 35       	xor    $0x35353535,%eax
    afa1:	35 35 35 35 35       	xor    $0x35353535,%eax
    afa6:	35 35 35 35 35       	xor    $0x35353535,%eax
    afab:	35 35 35 35 35       	xor    $0x35353535,%eax
    afb0:	35 35 35 35 35       	xor    $0x35353535,%eax
    afb5:	35 35 35 35 35       	xor    $0x35353535,%eax
    afba:	35 35 35 35 35       	xor    $0x35353535,%eax
    afbf:	35 35 35 35 35       	xor    $0x35353535,%eax
    afc4:	35 35 35 35 35       	xor    $0x35353535,%eax
    afc9:	35 35 35 35 35       	xor    $0x35353535,%eax
    afce:	35 35 35 35 35       	xor    $0x35353535,%eax
    afd3:	35 35 35 35 35       	xor    $0x35353535,%eax
    afd8:	35 35 35 35 35       	xor    $0x35353535,%eax
    afdd:	35 35 35 35 35       	xor    $0x35353535,%eax
    afe2:	35 35 35 35 35       	xor    $0x35353535,%eax
    afe7:	35 35 35 35 35       	xor    $0x35353535,%eax
    afec:	35 35 35 35 35       	xor    $0x35353535,%eax
    aff1:	35 35 35 35 35       	xor    $0x35353535,%eax
    aff6:	35 35 35 35 35       	xor    $0x35353535,%eax
    affb:	35 35 35 35 35       	xor    $0x35353535,%eax
    b000:	35 35 35 35 35       	xor    $0x35353535,%eax
    b005:	35 35 35 35 35       	xor    $0x35353535,%eax
    b00a:	35 35 35 35 35       	xor    $0x35353535,%eax
    b00f:	35 35 35 35 35       	xor    $0x35353535,%eax
    b014:	35 35 35 35 35       	xor    $0x35353535,%eax
    b019:	35 35 35 35 35       	xor    $0x35353535,%eax
    b01e:	35 35 35 35 35       	xor    $0x35353535,%eax
    b023:	35 35 35 35 35       	xor    $0x35353535,%eax
    b028:	35 35 35 35 35       	xor    $0x35353535,%eax
    b02d:	35 35 35 35 35       	xor    $0x35353535,%eax
    b032:	35 35 35 35 35       	xor    $0x35353535,%eax
    b037:	35 35 35 35 35       	xor    $0x35353535,%eax
    b03c:	35 35 35 35 35       	xor    $0x35353535,%eax
    b041:	35 35 35 35 35       	xor    $0x35353535,%eax
    b046:	35 35 35 35 35       	xor    $0x35353535,%eax
    b04b:	35 35 35 35 35       	xor    $0x35353535,%eax
    b050:	35 35 35 35 35       	xor    $0x35353535,%eax
    b055:	35 35 35 35 35       	xor    $0x35353535,%eax
    b05a:	35 35 35 35 35       	xor    $0x35353535,%eax
    b05f:	35 35 35 35 35       	xor    $0x35353535,%eax
    b064:	35 35 35 35 35       	xor    $0x35353535,%eax
    b069:	35 35 35 35 35       	xor    $0x35353535,%eax
    b06e:	35 35 35 35 35       	xor    $0x35353535,%eax
    b073:	35 35 35 35 35       	xor    $0x35353535,%eax
    b078:	35 35 35 35 35       	xor    $0x35353535,%eax
    b07d:	35 35 35 35 35       	xor    $0x35353535,%eax
    b082:	35 35 35 35 35       	xor    $0x35353535,%eax
    b087:	35 35 35 35 35       	xor    $0x35353535,%eax
    b08c:	35 35 35 35 35       	xor    $0x35353535,%eax
    b091:	35 35 35 35 35       	xor    $0x35353535,%eax
    b096:	35 35 35 35 35       	xor    $0x35353535,%eax
    b09b:	35 35 35 35 35       	xor    $0x35353535,%eax
    b0a0:	35 35 35 35 35       	xor    $0x35353535,%eax
    b0a5:	35 35 35 35 35       	xor    $0x35353535,%eax
    b0aa:	35 35 35 35 35       	xor    $0x35353535,%eax
    b0af:	35 35 35 35 35       	xor    $0x35353535,%eax
    b0b4:	35 35 35 35 35       	xor    $0x35353535,%eax
    b0b9:	35 35 35 35 35       	xor    $0x35353535,%eax
    b0be:	35 35 35 35 35       	xor    $0x35353535,%eax
    b0c3:	35 35 35 35 35       	xor    $0x35353535,%eax
    b0c8:	35 35 35 35 35       	xor    $0x35353535,%eax
    b0cd:	35 35 35 35 35       	xor    $0x35353535,%eax
    b0d2:	35 35 35 35 35       	xor    $0x35353535,%eax
    b0d7:	35 35 35 35 35       	xor    $0x35353535,%eax
    b0dc:	35 35 35 35 35       	xor    $0x35353535,%eax
    b0e1:	35 35 35 35 35       	xor    $0x35353535,%eax
    b0e6:	35 35 35 35 35       	xor    $0x35353535,%eax
    b0eb:	35 35 35 35 35       	xor    $0x35353535,%eax
    b0f0:	35 35 35 35 35       	xor    $0x35353535,%eax
    b0f5:	35 35 35 35 35       	xor    $0x35353535,%eax
    b0fa:	35 35 35 35 35       	xor    $0x35353535,%eax
    b0ff:	35 35 35 35 35       	xor    $0x35353535,%eax
    b104:	35 35 35 35 35       	xor    $0x35353535,%eax
    b109:	35 35 35 35 35       	xor    $0x35353535,%eax
    b10e:	35 35 35 35 35       	xor    $0x35353535,%eax
    b113:	35 35 35 35 35       	xor    $0x35353535,%eax
    b118:	35 35 35 35 35       	xor    $0x35353535,%eax
    b11d:	35 35 35 35 35       	xor    $0x35353535,%eax
    b122:	35 35 35 35 35       	xor    $0x35353535,%eax
    b127:	35 35 35 35 35       	xor    $0x35353535,%eax
    b12c:	35 35 35 35 35       	xor    $0x35353535,%eax
    b131:	35 35 35 35 35       	xor    $0x35353535,%eax
    b136:	35 35 35 35 35       	xor    $0x35353535,%eax
    b13b:	35 35 35 35 35       	xor    $0x35353535,%eax
    b140:	35 35 35 35 35       	xor    $0x35353535,%eax
    b145:	35 35 35 35 35       	xor    $0x35353535,%eax
    b14a:	35 35 35 35 35       	xor    $0x35353535,%eax
    b14f:	35 35 35 35 35       	xor    $0x35353535,%eax
    b154:	35 35 35 35 35       	xor    $0x35353535,%eax
    b159:	35 35 35 35 35       	xor    $0x35353535,%eax
    b15e:	35 35 35 35 35       	xor    $0x35353535,%eax
    b163:	35 35 35 35 35       	xor    $0x35353535,%eax
    b168:	35 35 35 35 35       	xor    $0x35353535,%eax
    b16d:	35 35 35 35 35       	xor    $0x35353535,%eax
    b172:	35 35 35 35 35       	xor    $0x35353535,%eax
    b177:	35 35 35 35 35       	xor    $0x35353535,%eax
    b17c:	35 35 35 35 35       	xor    $0x35353535,%eax
    b181:	35 35 35 35 35       	xor    $0x35353535,%eax
    b186:	35 35 35 35 35       	xor    $0x35353535,%eax
    b18b:	35 35 35 35 35       	xor    $0x35353535,%eax
    b190:	35 35 35 35 35       	xor    $0x35353535,%eax
    b195:	35 35 35 35 35       	xor    $0x35353535,%eax
    b19a:	35 35 35 35 35       	xor    $0x35353535,%eax
    b19f:	35 35 35 35 35       	xor    $0x35353535,%eax
    b1a4:	35 35 35 35 35       	xor    $0x35353535,%eax
    b1a9:	35 35 35 35 35       	xor    $0x35353535,%eax
    b1ae:	35 35 35 35 35       	xor    $0x35353535,%eax
    b1b3:	35 35 35 35 35       	xor    $0x35353535,%eax
    b1b8:	35 35 35 35 35       	xor    $0x35353535,%eax
    b1bd:	35 35 35 35 35       	xor    $0x35353535,%eax
    b1c2:	35 35 35 35 35       	xor    $0x35353535,%eax
    b1c7:	35 35 35 35 35       	xor    $0x35353535,%eax
    b1cc:	35 35 35 35 35       	xor    $0x35353535,%eax
    b1d1:	35 35 35 35 35       	xor    $0x35353535,%eax
    b1d6:	35 35 35 35 35       	xor    $0x35353535,%eax
    b1db:	35 35 35 35 35       	xor    $0x35353535,%eax
    b1e0:	35 35 35 35 35       	xor    $0x35353535,%eax
    b1e5:	35 35 35 35 35       	xor    $0x35353535,%eax
    b1ea:	35 35 35 35 35       	xor    $0x35353535,%eax
    b1ef:	35 35 35 35 35       	xor    $0x35353535,%eax
    b1f4:	35 35 35 35 35       	xor    $0x35353535,%eax
    b1f9:	35 35 35 35 35       	xor    $0x35353535,%eax
    b1fe:	35 35 35 35 35       	xor    $0x35353535,%eax
    b203:	35 35 35 35 35       	xor    $0x35353535,%eax
    b208:	35 35 35 35 35       	xor    $0x35353535,%eax
    b20d:	35 35 35 35 35       	xor    $0x35353535,%eax
    b212:	35 35 35 35 35       	xor    $0x35353535,%eax
    b217:	35 35 35 35 35       	xor    $0x35353535,%eax
    b21c:	35 35 35 35 35       	xor    $0x35353535,%eax
    b221:	35 35 35 35 35       	xor    $0x35353535,%eax
    b226:	35 35 35 35 35       	xor    $0x35353535,%eax
    b22b:	35 35 35 35 35       	xor    $0x35353535,%eax
    b230:	35 35 35 35 35       	xor    $0x35353535,%eax
    b235:	35 35 35 35 35       	xor    $0x35353535,%eax
    b23a:	35 35 35 35 35       	xor    $0x35353535,%eax
    b23f:	35 35 35 35 35       	xor    $0x35353535,%eax
    b244:	35 35 35 35 35       	xor    $0x35353535,%eax
    b249:	35 35 35 35 35       	xor    $0x35353535,%eax
    b24e:	35 35 35 35 35       	xor    $0x35353535,%eax
    b253:	35 35 35 35 35       	xor    $0x35353535,%eax
    b258:	35 35 35 35 35       	xor    $0x35353535,%eax
    b25d:	35 35 35 35 35       	xor    $0x35353535,%eax
    b262:	35 35 35 35 35       	xor    $0x35353535,%eax
    b267:	35 35 35 35 35       	xor    $0x35353535,%eax
    b26c:	35 35 35 35 35       	xor    $0x35353535,%eax
    b271:	35 35 35 35 35       	xor    $0x35353535,%eax
    b276:	35 35 35 35 35       	xor    $0x35353535,%eax
    b27b:	35 35 35 35 35       	xor    $0x35353535,%eax
    b280:	35 35 35 35 35       	xor    $0x35353535,%eax
    b285:	35 35 35 35 35       	xor    $0x35353535,%eax
    b28a:	35 35 35 35 35       	xor    $0x35353535,%eax
    b28f:	35 35 35 35 35       	xor    $0x35353535,%eax
    b294:	35 35 35 35 35       	xor    $0x35353535,%eax
    b299:	35 35 35 35 35       	xor    $0x35353535,%eax
    b29e:	35 35 35 35 35       	xor    $0x35353535,%eax
    b2a3:	35 35 35 35 35       	xor    $0x35353535,%eax
    b2a8:	35 35 35 35 35       	xor    $0x35353535,%eax
    b2ad:	35 35 35 35 35       	xor    $0x35353535,%eax
    b2b2:	35 35 35 35 35       	xor    $0x35353535,%eax
    b2b7:	35 35 35 35 35       	xor    $0x35353535,%eax
    b2bc:	35 35 35 35 35       	xor    $0x35353535,%eax
    b2c1:	35 35 35 35 35       	xor    $0x35353535,%eax
    b2c6:	35 35 35 35 35       	xor    $0x35353535,%eax
    b2cb:	35 35 35 35 35       	xor    $0x35353535,%eax
    b2d0:	35 35 35 35 35       	xor    $0x35353535,%eax
    b2d5:	35 35 35 35 35       	xor    $0x35353535,%eax
    b2da:	35 35 35 35 35       	xor    $0x35353535,%eax
    b2df:	35 35 35 35 35       	xor    $0x35353535,%eax
    b2e4:	35 35 35 35 35       	xor    $0x35353535,%eax
    b2e9:	35 35 35 35 35       	xor    $0x35353535,%eax
    b2ee:	35 35 35 35 35       	xor    $0x35353535,%eax
    b2f3:	35 35 35 35 35       	xor    $0x35353535,%eax
    b2f8:	35 35 35 35 35       	xor    $0x35353535,%eax
    b2fd:	35 35 35 35 35       	xor    $0x35353535,%eax
    b302:	35 35 35 35 35       	xor    $0x35353535,%eax
    b307:	35 35 35 35 35       	xor    $0x35353535,%eax
    b30c:	35 35 35 35 35       	xor    $0x35353535,%eax
    b311:	35 35 35 35 35       	xor    $0x35353535,%eax
    b316:	35 35 35 35 35       	xor    $0x35353535,%eax
    b31b:	35 35 35 35 35       	xor    $0x35353535,%eax
    b320:	35 35 35 35 35       	xor    $0x35353535,%eax
    b325:	35 35 35 35 35       	xor    $0x35353535,%eax
    b32a:	35 35 35 35 35       	xor    $0x35353535,%eax
    b32f:	35 35 35 35 35       	xor    $0x35353535,%eax
    b334:	35 35 35 35 35       	xor    $0x35353535,%eax
    b339:	35 35 35 35 35       	xor    $0x35353535,%eax
    b33e:	35 35 35 35 35       	xor    $0x35353535,%eax
    b343:	35 35 35 35 35       	xor    $0x35353535,%eax
    b348:	35 35 35 35 35       	xor    $0x35353535,%eax
    b34d:	35 35 35 35 35       	xor    $0x35353535,%eax
    b352:	35 35 35 35 35       	xor    $0x35353535,%eax
    b357:	35 35 35 35 35       	xor    $0x35353535,%eax
    b35c:	35 35 35 35 35       	xor    $0x35353535,%eax
    b361:	35 35 35 35 35       	xor    $0x35353535,%eax
    b366:	35 35 35 35 35       	xor    $0x35353535,%eax
    b36b:	35 35 35 35 35       	xor    $0x35353535,%eax
    b370:	35 35 35 35 35       	xor    $0x35353535,%eax
    b375:	35 35 35 35 35       	xor    $0x35353535,%eax
    b37a:	35 35 35 35 35       	xor    $0x35353535,%eax
    b37f:	35 35 35 35 35       	xor    $0x35353535,%eax
    b384:	35 35 35 35 35       	xor    $0x35353535,%eax
    b389:	35 35 35 35 35       	xor    $0x35353535,%eax
    b38e:	35 35 35 35 35       	xor    $0x35353535,%eax
    b393:	35 35 35 35 35       	xor    $0x35353535,%eax
    b398:	35 35 35 35 35       	xor    $0x35353535,%eax
    b39d:	35 35 35 35 35       	xor    $0x35353535,%eax
    b3a2:	35 35 35 35 35       	xor    $0x35353535,%eax
    b3a7:	35 35 35 35 35       	xor    $0x35353535,%eax
    b3ac:	35 35 35 35 35       	xor    $0x35353535,%eax
    b3b1:	35 35 35 35 35       	xor    $0x35353535,%eax
    b3b6:	35 35 35 35 35       	xor    $0x35353535,%eax
    b3bb:	35 35 35 35 35       	xor    $0x35353535,%eax
    b3c0:	35 35 35 35 35       	xor    $0x35353535,%eax
    b3c5:	35 35 35 35 35       	xor    $0x35353535,%eax
    b3ca:	35 35 35 35 35       	xor    $0x35353535,%eax
    b3cf:	35 35 35 35 35       	xor    $0x35353535,%eax
    b3d4:	35 35 35 35 35       	xor    $0x35353535,%eax
    b3d9:	35 35 35 35 35       	xor    $0x35353535,%eax
    b3de:	35 35 35 35 35       	xor    $0x35353535,%eax
    b3e3:	35 35 35 35 35       	xor    $0x35353535,%eax
    b3e8:	35 35 35 35 35       	xor    $0x35353535,%eax
    b3ed:	35 35 35 35 35       	xor    $0x35353535,%eax
    b3f2:	35 35 35 35 35       	xor    $0x35353535,%eax
    b3f7:	35 35 35 35 35       	xor    $0x35353535,%eax
    b3fc:	35 35 35 35 35       	xor    $0x35353535,%eax
    b401:	35 35 35 35 35       	xor    $0x35353535,%eax
    b406:	35 35 35 35 35       	xor    $0x35353535,%eax
    b40b:	35 35 35 35 35       	xor    $0x35353535,%eax
    b410:	35 35 35 35 35       	xor    $0x35353535,%eax
    b415:	35 35 35 35 35       	xor    $0x35353535,%eax
    b41a:	35 35 35 35 35       	xor    $0x35353535,%eax
    b41f:	35 35 35 35 35       	xor    $0x35353535,%eax
    b424:	35 35 35 35 35       	xor    $0x35353535,%eax
    b429:	35 35 35 35 35       	xor    $0x35353535,%eax
    b42e:	35 35 35 35 35       	xor    $0x35353535,%eax
    b433:	35 35 35 35 35       	xor    $0x35353535,%eax
    b438:	35 35 35 35 35       	xor    $0x35353535,%eax
    b43d:	35 35 35 35 35       	xor    $0x35353535,%eax
    b442:	35 35 35 35 35       	xor    $0x35353535,%eax
    b447:	35 35 35 35 35       	xor    $0x35353535,%eax
    b44c:	35 35 35 35 35       	xor    $0x35353535,%eax
    b451:	35 35 35 35 35       	xor    $0x35353535,%eax
    b456:	35 35 35 35 35       	xor    $0x35353535,%eax
    b45b:	35 35 35 35 35       	xor    $0x35353535,%eax
    b460:	35 35 35 35 35       	xor    $0x35353535,%eax
    b465:	35 35 35 35 35       	xor    $0x35353535,%eax
    b46a:	35 35 35 35 35       	xor    $0x35353535,%eax
    b46f:	35 35 35 35 35       	xor    $0x35353535,%eax
    b474:	35 35 35 35 35       	xor    $0x35353535,%eax
    b479:	35 35 35 35 35       	xor    $0x35353535,%eax
    b47e:	35 35 35 35 35       	xor    $0x35353535,%eax
    b483:	35 35 35 35 35       	xor    $0x35353535,%eax
    b488:	35 35 35 35 35       	xor    $0x35353535,%eax
    b48d:	35 35 35 35 35       	xor    $0x35353535,%eax
    b492:	35 35 35 35 35       	xor    $0x35353535,%eax
    b497:	35 35 35 35 35       	xor    $0x35353535,%eax
    b49c:	35 35 35 35 35       	xor    $0x35353535,%eax
    b4a1:	35 35 35 35 35       	xor    $0x35353535,%eax
    b4a6:	35 35 35 35 35       	xor    $0x35353535,%eax
    b4ab:	35 35 35 35 35       	xor    $0x35353535,%eax
    b4b0:	35 35 35 35 35       	xor    $0x35353535,%eax
    b4b5:	35 35 35 35 35       	xor    $0x35353535,%eax
    b4ba:	35 35 35 35 35       	xor    $0x35353535,%eax
    b4bf:	35 35 35 35 35       	xor    $0x35353535,%eax
    b4c4:	35 35 35 35 35       	xor    $0x35353535,%eax
    b4c9:	35 35 35 35 35       	xor    $0x35353535,%eax
    b4ce:	35 35 35 35 35       	xor    $0x35353535,%eax
    b4d3:	35 35 35 35 35       	xor    $0x35353535,%eax
    b4d8:	35 35 35 35 35       	xor    $0x35353535,%eax
    b4dd:	35 35 35 35 35       	xor    $0x35353535,%eax
    b4e2:	35 35 35 35 35       	xor    $0x35353535,%eax
    b4e7:	35 35 35 35 35       	xor    $0x35353535,%eax
    b4ec:	35 35 35 35 35       	xor    $0x35353535,%eax
    b4f1:	35 35 35 35 35       	xor    $0x35353535,%eax
    b4f6:	35 35 35 35 35       	xor    $0x35353535,%eax
    b4fb:	35 35 35 35 35       	xor    $0x35353535,%eax
    b500:	35 35 35 35 35       	xor    $0x35353535,%eax
    b505:	35 35 35 35 35       	xor    $0x35353535,%eax
    b50a:	35 35 35 35 35       	xor    $0x35353535,%eax
    b50f:	35 35 35 35 35       	xor    $0x35353535,%eax
    b514:	35 35 35 35 35       	xor    $0x35353535,%eax
    b519:	35 35 35 35 35       	xor    $0x35353535,%eax
    b51e:	35 35 35 35 35       	xor    $0x35353535,%eax
    b523:	35 35 35 35 35       	xor    $0x35353535,%eax
    b528:	35 35 35 35 35       	xor    $0x35353535,%eax
    b52d:	35 35 35 35 35       	xor    $0x35353535,%eax
    b532:	35 35 35 35 35       	xor    $0x35353535,%eax
    b537:	35 35 35 35 35       	xor    $0x35353535,%eax
    b53c:	35 35 35 35 35       	xor    $0x35353535,%eax
    b541:	35 35 35 35 35       	xor    $0x35353535,%eax
    b546:	35 35 35 35 35       	xor    $0x35353535,%eax
    b54b:	35 35 35 35 35       	xor    $0x35353535,%eax
    b550:	35 35 35 35 35       	xor    $0x35353535,%eax
    b555:	35 35 35 35 35       	xor    $0x35353535,%eax
    b55a:	35 35 35 35 35       	xor    $0x35353535,%eax
    b55f:	35 35 35 35 35       	xor    $0x35353535,%eax
    b564:	35 35 35 35 35       	xor    $0x35353535,%eax
    b569:	35 35 35 35 35       	xor    $0x35353535,%eax
    b56e:	35 35 35 35 35       	xor    $0x35353535,%eax
    b573:	35 35 35 35 35       	xor    $0x35353535,%eax
    b578:	35 35 35 35 35       	xor    $0x35353535,%eax
    b57d:	35 35 35 35 35       	xor    $0x35353535,%eax
    b582:	35 35 35 35 35       	xor    $0x35353535,%eax
    b587:	35 35 35 35 35       	xor    $0x35353535,%eax
    b58c:	35 35 35 35 35       	xor    $0x35353535,%eax
    b591:	35 35 35 35 35       	xor    $0x35353535,%eax
    b596:	35 35 35 35 35       	xor    $0x35353535,%eax
    b59b:	35 35 35 35 35       	xor    $0x35353535,%eax
    b5a0:	35 35 35 35 35       	xor    $0x35353535,%eax
    b5a5:	35 35 35 35 35       	xor    $0x35353535,%eax
    b5aa:	35 35 35 35 35       	xor    $0x35353535,%eax
    b5af:	35 35 35 35 35       	xor    $0x35353535,%eax
    b5b4:	35 35 35 35 35       	xor    $0x35353535,%eax
    b5b9:	35 35 35 35 35       	xor    $0x35353535,%eax
    b5be:	35 35 35 35 35       	xor    $0x35353535,%eax
    b5c3:	35 35 35 35 35       	xor    $0x35353535,%eax
    b5c8:	35 35 35 35 35       	xor    $0x35353535,%eax
    b5cd:	35 35 35 35 35       	xor    $0x35353535,%eax
    b5d2:	35 35 35 35 35       	xor    $0x35353535,%eax
    b5d7:	35 35 35 35 35       	xor    $0x35353535,%eax
    b5dc:	35 35 35 35 35       	xor    $0x35353535,%eax
    b5e1:	35 35 35 35 35       	xor    $0x35353535,%eax
    b5e6:	35 35 35 35 35       	xor    $0x35353535,%eax
    b5eb:	35 35 35 35 35       	xor    $0x35353535,%eax
    b5f0:	35 35 35 35 35       	xor    $0x35353535,%eax
    b5f5:	35 35 35 35 35       	xor    $0x35353535,%eax
    b5fa:	35 35 35 35 35       	xor    $0x35353535,%eax
    b5ff:	35 35 35 35 35       	xor    $0x35353535,%eax
    b604:	35 35 35 35 35       	xor    $0x35353535,%eax
    b609:	35 35 35 35 35       	xor    $0x35353535,%eax
    b60e:	35 35 35 35 35       	xor    $0x35353535,%eax
    b613:	35 35 35 35 35       	xor    $0x35353535,%eax
    b618:	35 35 35 35 35       	xor    $0x35353535,%eax
    b61d:	35 35 35 35 35       	xor    $0x35353535,%eax
    b622:	35 35 35 35 35       	xor    $0x35353535,%eax
    b627:	35 35 35 35 35       	xor    $0x35353535,%eax
    b62c:	35 35 35 35 35       	xor    $0x35353535,%eax
    b631:	35 35 35 35 35       	xor    $0x35353535,%eax
    b636:	35 35 35 35 35       	xor    $0x35353535,%eax
    b63b:	35 35 35 35 35       	xor    $0x35353535,%eax
    b640:	35 35 35 35 35       	xor    $0x35353535,%eax
    b645:	35 35 35 35 35       	xor    $0x35353535,%eax
    b64a:	35 35 35 35 35       	xor    $0x35353535,%eax
    b64f:	35 35 35 35 35       	xor    $0x35353535,%eax
    b654:	35 35 35 35 35       	xor    $0x35353535,%eax
    b659:	35 35 35 35 35       	xor    $0x35353535,%eax
    b65e:	35 35 35 35 35       	xor    $0x35353535,%eax
    b663:	35 35 35 35 35       	xor    $0x35353535,%eax
    b668:	35 35 35 35 35       	xor    $0x35353535,%eax
    b66d:	35 35 35 35 35       	xor    $0x35353535,%eax
    b672:	35 35 35 35 35       	xor    $0x35353535,%eax
    b677:	35 35 35 35 35       	xor    $0x35353535,%eax
    b67c:	35 35 35 35 35       	xor    $0x35353535,%eax
    b681:	35 35 35 35 35       	xor    $0x35353535,%eax
    b686:	35 35 35 35 35       	xor    $0x35353535,%eax
    b68b:	35 35 35 35 35       	xor    $0x35353535,%eax
    b690:	35 35 35 35 35       	xor    $0x35353535,%eax
    b695:	35 35 35 35 35       	xor    $0x35353535,%eax
    b69a:	35 35 35 35 35       	xor    $0x35353535,%eax
    b69f:	35 35 35 35 35       	xor    $0x35353535,%eax
    b6a4:	35 35 35 35 35       	xor    $0x35353535,%eax
    b6a9:	35 35 35 35 35       	xor    $0x35353535,%eax
    b6ae:	35 35 35 35 35       	xor    $0x35353535,%eax
    b6b3:	35 35 35 35 35       	xor    $0x35353535,%eax
    b6b8:	35 35 35 35 35       	xor    $0x35353535,%eax
    b6bd:	35 35 35 35 35       	xor    $0x35353535,%eax
    b6c2:	35 35 35 35 35       	xor    $0x35353535,%eax
    b6c7:	35 35 35 35 35       	xor    $0x35353535,%eax
    b6cc:	35 35 35 35 35       	xor    $0x35353535,%eax
    b6d1:	35 35 35 35 35       	xor    $0x35353535,%eax
    b6d6:	35 35 35 35 35       	xor    $0x35353535,%eax
    b6db:	35 35 35 35 35       	xor    $0x35353535,%eax
    b6e0:	35 35 35 35 35       	xor    $0x35353535,%eax
    b6e5:	35 35 35 35 35       	xor    $0x35353535,%eax
    b6ea:	35 35 35 35 35       	xor    $0x35353535,%eax
    b6ef:	35 35 35 35 35       	xor    $0x35353535,%eax
    b6f4:	35 35 35 35 35       	xor    $0x35353535,%eax
    b6f9:	35 35 35 35 35       	xor    $0x35353535,%eax
    b6fe:	35 35 35 35 35       	xor    $0x35353535,%eax
    b703:	35 35 35 35 35       	xor    $0x35353535,%eax
    b708:	35 35 35 35 35       	xor    $0x35353535,%eax
    b70d:	35 35 35 35 35       	xor    $0x35353535,%eax
    b712:	35 35 35 35 35       	xor    $0x35353535,%eax
    b717:	35 35 35 35 35       	xor    $0x35353535,%eax
    b71c:	35 35 35 35 35       	xor    $0x35353535,%eax
    b721:	35 35 35 35 35       	xor    $0x35353535,%eax
    b726:	35 35 35 35 35       	xor    $0x35353535,%eax
    b72b:	35 35 35 35 35       	xor    $0x35353535,%eax
    b730:	35 35 35 35 35       	xor    $0x35353535,%eax
    b735:	35 35 35 35 35       	xor    $0x35353535,%eax
    b73a:	35 35 35 35 35       	xor    $0x35353535,%eax
    b73f:	35 35 35 35 35       	xor    $0x35353535,%eax
    b744:	35 35 35 35 35       	xor    $0x35353535,%eax
    b749:	35 35 35 35 35       	xor    $0x35353535,%eax
    b74e:	35 35 35 35 35       	xor    $0x35353535,%eax
    b753:	35 35 35 35 35       	xor    $0x35353535,%eax
    b758:	35 35 35 35 35       	xor    $0x35353535,%eax
    b75d:	35 35 35 35 35       	xor    $0x35353535,%eax
    b762:	35 35 35 35 35       	xor    $0x35353535,%eax
    b767:	35 35 35 35 35       	xor    $0x35353535,%eax
    b76c:	35 35 35 35 35       	xor    $0x35353535,%eax
    b771:	35 35 35 35 35       	xor    $0x35353535,%eax
    b776:	35 35 35 35 35       	xor    $0x35353535,%eax
    b77b:	35 35 35 35 35       	xor    $0x35353535,%eax
    b780:	35 35 35 35 35       	xor    $0x35353535,%eax
    b785:	35 35 35 35 35       	xor    $0x35353535,%eax
    b78a:	35 35 35 35 35       	xor    $0x35353535,%eax
    b78f:	35 35 35 35 35       	xor    $0x35353535,%eax
    b794:	35 35 35 35 35       	xor    $0x35353535,%eax
    b799:	35 35 35 35 35       	xor    $0x35353535,%eax
    b79e:	35 35 35 35 35       	xor    $0x35353535,%eax
    b7a3:	35 35 35 35 35       	xor    $0x35353535,%eax
    b7a8:	35 35 35 35 35       	xor    $0x35353535,%eax
    b7ad:	35 35 35 35 35       	xor    $0x35353535,%eax
    b7b2:	35 35 35 35 35       	xor    $0x35353535,%eax
    b7b7:	35 35 35 35 35       	xor    $0x35353535,%eax
    b7bc:	35 35 35 35 35       	xor    $0x35353535,%eax
    b7c1:	35 35 35 35 35       	xor    $0x35353535,%eax
    b7c6:	35 35 35 35 35       	xor    $0x35353535,%eax
    b7cb:	35 35 35 35 35       	xor    $0x35353535,%eax
    b7d0:	35 35 35 35 35       	xor    $0x35353535,%eax
    b7d5:	35 35 35 35 35       	xor    $0x35353535,%eax
    b7da:	35 35 35 35 35       	xor    $0x35353535,%eax
    b7df:	35 35 35 35 35       	xor    $0x35353535,%eax
    b7e4:	35 35 35 35 35       	xor    $0x35353535,%eax
    b7e9:	35 35 35 35 35       	xor    $0x35353535,%eax
    b7ee:	35 35 35 35 35       	xor    $0x35353535,%eax
    b7f3:	35 35 35 35 35       	xor    $0x35353535,%eax
    b7f8:	35 35 35 35 35       	xor    $0x35353535,%eax
    b7fd:	35 35 35 35 35       	xor    $0x35353535,%eax
    b802:	35 35 35 35 35       	xor    $0x35353535,%eax
    b807:	35 35 35 35 35       	xor    $0x35353535,%eax
    b80c:	35 35 35 35 35       	xor    $0x35353535,%eax
    b811:	35 35 35 35 35       	xor    $0x35353535,%eax
    b816:	35 35 35 35 35       	xor    $0x35353535,%eax
    b81b:	35 35 35 35 35       	xor    $0x35353535,%eax
    b820:	35 35 35 35 35       	xor    $0x35353535,%eax
    b825:	35 35 35 35 35       	xor    $0x35353535,%eax
    b82a:	35 35 35 35 35       	xor    $0x35353535,%eax
    b82f:	35 35 35 35 35       	xor    $0x35353535,%eax
    b834:	35 35 35 35 35       	xor    $0x35353535,%eax
    b839:	35 35 35 35 35       	xor    $0x35353535,%eax
    b83e:	35 35 35 35 35       	xor    $0x35353535,%eax
    b843:	35 35 35 35 35       	xor    $0x35353535,%eax
    b848:	35 35 35 35 35       	xor    $0x35353535,%eax
    b84d:	35 35 35 35 35       	xor    $0x35353535,%eax
    b852:	35 35 35 35 35       	xor    $0x35353535,%eax
    b857:	35 35 35 35 35       	xor    $0x35353535,%eax
    b85c:	35 35 35 35 35       	xor    $0x35353535,%eax
    b861:	35 35 35 35 35       	xor    $0x35353535,%eax
    b866:	35 35 35 35 35       	xor    $0x35353535,%eax
    b86b:	35 35 35 35 35       	xor    $0x35353535,%eax
    b870:	35 35 35 35 35       	xor    $0x35353535,%eax
    b875:	35 35 35 35 35       	xor    $0x35353535,%eax
    b87a:	35 35 35 35 35       	xor    $0x35353535,%eax
    b87f:	35 35 35 35 35       	xor    $0x35353535,%eax
    b884:	35 35 35 35 35       	xor    $0x35353535,%eax
    b889:	35 35 35 35 35       	xor    $0x35353535,%eax
    b88e:	35 35 35 35 35       	xor    $0x35353535,%eax
    b893:	35 35 35 35 35       	xor    $0x35353535,%eax
    b898:	35 35 35 35 35       	xor    $0x35353535,%eax
    b89d:	35 35 35 35 35       	xor    $0x35353535,%eax
    b8a2:	35 35 35 35 35       	xor    $0x35353535,%eax
    b8a7:	35 35 35 35 35       	xor    $0x35353535,%eax
    b8ac:	35 35 35 35 35       	xor    $0x35353535,%eax
    b8b1:	35 35 35 35 35       	xor    $0x35353535,%eax
    b8b6:	35 35 35 35 35       	xor    $0x35353535,%eax
    b8bb:	35 35 35 35 35       	xor    $0x35353535,%eax
    b8c0:	35 35 35 35 35       	xor    $0x35353535,%eax
    b8c5:	35 35 35 35 35       	xor    $0x35353535,%eax
    b8ca:	35 35 35 35 35       	xor    $0x35353535,%eax
    b8cf:	35 35 35 35 35       	xor    $0x35353535,%eax
    b8d4:	35 35 35 35 35       	xor    $0x35353535,%eax
    b8d9:	35 35 35 35 35       	xor    $0x35353535,%eax
    b8de:	35 35 35 35 35       	xor    $0x35353535,%eax
    b8e3:	35 35 35 35 35       	xor    $0x35353535,%eax
    b8e8:	35 35 35 35 35       	xor    $0x35353535,%eax
    b8ed:	35 35 35 35 35       	xor    $0x35353535,%eax
    b8f2:	35 35 35 35 35       	xor    $0x35353535,%eax
    b8f7:	35 35 35 35 35       	xor    $0x35353535,%eax
    b8fc:	35 35 35 35 35       	xor    $0x35353535,%eax
    b901:	35 35 35 35 35       	xor    $0x35353535,%eax
    b906:	35 35 35 35 35       	xor    $0x35353535,%eax
    b90b:	35 35 35 35 35       	xor    $0x35353535,%eax
    b910:	35 35 35 35 35       	xor    $0x35353535,%eax
    b915:	35 35 35 35 35       	xor    $0x35353535,%eax
    b91a:	35 35 35 35 35       	xor    $0x35353535,%eax
    b91f:	35 35 35 35 35       	xor    $0x35353535,%eax
    b924:	35 35 35 35 35       	xor    $0x35353535,%eax
    b929:	35 35 35 35 35       	xor    $0x35353535,%eax
    b92e:	35 35 35 35 35       	xor    $0x35353535,%eax
    b933:	35 35 35 35 35       	xor    $0x35353535,%eax
    b938:	35 35 35 35 35       	xor    $0x35353535,%eax
    b93d:	35 35 35 35 35       	xor    $0x35353535,%eax
    b942:	35 35 35 35 35       	xor    $0x35353535,%eax
    b947:	35 35 35 35 35       	xor    $0x35353535,%eax
    b94c:	35 35 35 35 35       	xor    $0x35353535,%eax
    b951:	35 35 35 35 35       	xor    $0x35353535,%eax
    b956:	35 35 35 35 35       	xor    $0x35353535,%eax
    b95b:	35 35 35 35 35       	xor    $0x35353535,%eax
    b960:	35 35 35 35 35       	xor    $0x35353535,%eax
    b965:	35 35 35 35 35       	xor    $0x35353535,%eax
    b96a:	35 35 35 35 35       	xor    $0x35353535,%eax
    b96f:	35 35 35 35 35       	xor    $0x35353535,%eax
    b974:	35 35 35 35 35       	xor    $0x35353535,%eax
    b979:	35 35 35 35 35       	xor    $0x35353535,%eax
    b97e:	35 35 35 35 35       	xor    $0x35353535,%eax
    b983:	35 35 35 35 35       	xor    $0x35353535,%eax
    b988:	35 35 35 35 35       	xor    $0x35353535,%eax
    b98d:	35 35 35 35 35       	xor    $0x35353535,%eax
    b992:	35 35 35 35 35       	xor    $0x35353535,%eax
    b997:	35 35 35 35 35       	xor    $0x35353535,%eax
    b99c:	35 35 35 35 35       	xor    $0x35353535,%eax
    b9a1:	35 35 35 35 35       	xor    $0x35353535,%eax
    b9a6:	35 35 35 35 35       	xor    $0x35353535,%eax
    b9ab:	35 35 35 35 35       	xor    $0x35353535,%eax
    b9b0:	35 35 35 35 35       	xor    $0x35353535,%eax
    b9b5:	35 35 35 35 35       	xor    $0x35353535,%eax
    b9ba:	35 35 35 35 35       	xor    $0x35353535,%eax
    b9bf:	35 35 35 35 35       	xor    $0x35353535,%eax
    b9c4:	35 35 35 35 35       	xor    $0x35353535,%eax
    b9c9:	35 35 35 35 35       	xor    $0x35353535,%eax
    b9ce:	35 35 35 35 35       	xor    $0x35353535,%eax
    b9d3:	35 35 35 35 35       	xor    $0x35353535,%eax
    b9d8:	35 35 35 35 35       	xor    $0x35353535,%eax
    b9dd:	35 35 35 35 35       	xor    $0x35353535,%eax
    b9e2:	35 35 35 35 35       	xor    $0x35353535,%eax
    b9e7:	35 35 35 35 35       	xor    $0x35353535,%eax
    b9ec:	35 35 35 35 35       	xor    $0x35353535,%eax
    b9f1:	35 35 35 35 35       	xor    $0x35353535,%eax
    b9f6:	35 35 35 35 35       	xor    $0x35353535,%eax
    b9fb:	35 35 35 35 35       	xor    $0x35353535,%eax
    ba00:	35 35 35 35 35       	xor    $0x35353535,%eax
    ba05:	35 35 35 35 35       	xor    $0x35353535,%eax
    ba0a:	35 35 35 35 35       	xor    $0x35353535,%eax
    ba0f:	35 35 35 35 35       	xor    $0x35353535,%eax
    ba14:	35 35 35 35 35       	xor    $0x35353535,%eax
    ba19:	35 35 35 35 35       	xor    $0x35353535,%eax
    ba1e:	35 35 35 35 35       	xor    $0x35353535,%eax
    ba23:	35 35 35 35 35       	xor    $0x35353535,%eax
    ba28:	35 35 35 35 35       	xor    $0x35353535,%eax
    ba2d:	35 35 35 35 35       	xor    $0x35353535,%eax
    ba32:	35 35 35 35 35       	xor    $0x35353535,%eax
    ba37:	35 35 35 35 35       	xor    $0x35353535,%eax
    ba3c:	35 35 35 35 35       	xor    $0x35353535,%eax
    ba41:	35 35 35 35 35       	xor    $0x35353535,%eax
    ba46:	35 35 35 35 35       	xor    $0x35353535,%eax
    ba4b:	35 35 35 35 35       	xor    $0x35353535,%eax
    ba50:	35 35 35 35 35       	xor    $0x35353535,%eax
    ba55:	35 35 35 35 35       	xor    $0x35353535,%eax
    ba5a:	35 35 35 35 35       	xor    $0x35353535,%eax
    ba5f:	35 35 35 35 35       	xor    $0x35353535,%eax
    ba64:	35 35 35 35 35       	xor    $0x35353535,%eax
    ba69:	35 35 35 35 35       	xor    $0x35353535,%eax
    ba6e:	35 35 35 35 35       	xor    $0x35353535,%eax
    ba73:	35 35 35 35 35       	xor    $0x35353535,%eax
    ba78:	35 35 35 35 35       	xor    $0x35353535,%eax
    ba7d:	35 35 35 35 35       	xor    $0x35353535,%eax
    ba82:	35 35 35 35 35       	xor    $0x35353535,%eax
    ba87:	35 35 35 35 35       	xor    $0x35353535,%eax
    ba8c:	35 35 35 35 35       	xor    $0x35353535,%eax
    ba91:	35 35 35 35 35       	xor    $0x35353535,%eax
    ba96:	35 35 35 35 35       	xor    $0x35353535,%eax
    ba9b:	35 35 35 35 35       	xor    $0x35353535,%eax
    baa0:	35 35 35 35 35       	xor    $0x35353535,%eax
    baa5:	35 35 35 35 35       	xor    $0x35353535,%eax
    baaa:	35 35 35 35 35       	xor    $0x35353535,%eax
    baaf:	35 35 35 35 35       	xor    $0x35353535,%eax
    bab4:	35 35 35 35 35       	xor    $0x35353535,%eax
    bab9:	35 35 35 35 35       	xor    $0x35353535,%eax
    babe:	35 35 35 35 35       	xor    $0x35353535,%eax
    bac3:	35 35 35 35 35       	xor    $0x35353535,%eax
    bac8:	35 35 35 35 35       	xor    $0x35353535,%eax
    bacd:	35 35 35 35 35       	xor    $0x35353535,%eax
    bad2:	35 35 35 35 35       	xor    $0x35353535,%eax
    bad7:	35 35 35 35 35       	xor    $0x35353535,%eax
    badc:	35 35 35 35 35       	xor    $0x35353535,%eax
    bae1:	35 35 35 35 35       	xor    $0x35353535,%eax
    bae6:	35 35 35 35 35       	xor    $0x35353535,%eax
    baeb:	35 35 35 35 35       	xor    $0x35353535,%eax
    baf0:	35 35 35 35 35       	xor    $0x35353535,%eax
    baf5:	35 35 35 35 35       	xor    $0x35353535,%eax
    bafa:	35 35 35 35 35       	xor    $0x35353535,%eax
    baff:	35 35 35 35 35       	xor    $0x35353535,%eax
    bb04:	35 35 35 35 35       	xor    $0x35353535,%eax
    bb09:	35 35 35 35 35       	xor    $0x35353535,%eax
    bb0e:	35 35 35 35 35       	xor    $0x35353535,%eax
    bb13:	35 35 35 35 35       	xor    $0x35353535,%eax
    bb18:	35 35 35 35 35       	xor    $0x35353535,%eax
    bb1d:	35 35 35 35 35       	xor    $0x35353535,%eax
    bb22:	35 35 35 35 35       	xor    $0x35353535,%eax
    bb27:	35 35 35 35 35       	xor    $0x35353535,%eax
    bb2c:	35 35 35 35 35       	xor    $0x35353535,%eax
    bb31:	35 35 35 35 35       	xor    $0x35353535,%eax
    bb36:	35 35 35 35 35       	xor    $0x35353535,%eax
    bb3b:	35 35 35 35 35       	xor    $0x35353535,%eax
    bb40:	35 35 35 35 35       	xor    $0x35353535,%eax
    bb45:	35 35 35 35 35       	xor    $0x35353535,%eax
    bb4a:	35 35 35 35 35       	xor    $0x35353535,%eax
    bb4f:	35 35 35 35 35       	xor    $0x35353535,%eax
    bb54:	35 35 35 35 35       	xor    $0x35353535,%eax
    bb59:	35 35 35 35 35       	xor    $0x35353535,%eax
    bb5e:	35 35 35 35 35       	xor    $0x35353535,%eax
    bb63:	35 35 35 35 35       	xor    $0x35353535,%eax
    bb68:	35 35 35 35 35       	xor    $0x35353535,%eax
    bb6d:	35 35 35 35 35       	xor    $0x35353535,%eax
    bb72:	35 35 35 35 35       	xor    $0x35353535,%eax
    bb77:	35 35 35 35 35       	xor    $0x35353535,%eax
    bb7c:	35 35 35 35 35       	xor    $0x35353535,%eax
    bb81:	35 35 35 35 35       	xor    $0x35353535,%eax
    bb86:	35 35 35 35 35       	xor    $0x35353535,%eax
    bb8b:	35 35 35 35 35       	xor    $0x35353535,%eax
    bb90:	35 35 35 35 35       	xor    $0x35353535,%eax
    bb95:	35 35 35 35 35       	xor    $0x35353535,%eax
    bb9a:	35 35 35 35 35       	xor    $0x35353535,%eax
    bb9f:	35 35 35 35 35       	xor    $0x35353535,%eax
    bba4:	35 35 35 35 35       	xor    $0x35353535,%eax
    bba9:	35 35 35 35 35       	xor    $0x35353535,%eax
    bbae:	35 35 35 35 35       	xor    $0x35353535,%eax
    bbb3:	35 35 35 35 35       	xor    $0x35353535,%eax
    bbb8:	35 35 35 35 35       	xor    $0x35353535,%eax
    bbbd:	35 35 35 35 35       	xor    $0x35353535,%eax
    bbc2:	35 35 35 35 35       	xor    $0x35353535,%eax
    bbc7:	35 35 35 35 35       	xor    $0x35353535,%eax
    bbcc:	35 35 35 35 35       	xor    $0x35353535,%eax
    bbd1:	35 35 35 35 35       	xor    $0x35353535,%eax
    bbd6:	35 35 35 35 35       	xor    $0x35353535,%eax
    bbdb:	35 35 35 35 35       	xor    $0x35353535,%eax
    bbe0:	35 35 35 35 35       	xor    $0x35353535,%eax
    bbe5:	35 35 35 35 35       	xor    $0x35353535,%eax
    bbea:	35 35 35 35 35       	xor    $0x35353535,%eax
    bbef:	35 35 35 35 35       	xor    $0x35353535,%eax
    bbf4:	35 35 35 35 35       	xor    $0x35353535,%eax
    bbf9:	35 35 35 35 35       	xor    $0x35353535,%eax
    bbfe:	35 35 35 35 35       	xor    $0x35353535,%eax
    bc03:	35 35 35 35 35       	xor    $0x35353535,%eax
    bc08:	35 35 35 35 35       	xor    $0x35353535,%eax
    bc0d:	35 35 35 35 35       	xor    $0x35353535,%eax
    bc12:	35 35 35 35 35       	xor    $0x35353535,%eax
    bc17:	35 35 35 35 35       	xor    $0x35353535,%eax
    bc1c:	35 35 35 35 35       	xor    $0x35353535,%eax
    bc21:	35 35 35 35 35       	xor    $0x35353535,%eax
    bc26:	35 35 35 35 35       	xor    $0x35353535,%eax
    bc2b:	35 35 35 35 35       	xor    $0x35353535,%eax
    bc30:	35 35 35 35 35       	xor    $0x35353535,%eax
    bc35:	35 35 35 35 35       	xor    $0x35353535,%eax
    bc3a:	35 35 35 35 35       	xor    $0x35353535,%eax
    bc3f:	35 35 35 35 35       	xor    $0x35353535,%eax
    bc44:	35 35 35 35 35       	xor    $0x35353535,%eax
    bc49:	35 35 35 35 35       	xor    $0x35353535,%eax
    bc4e:	35 35 35 35 35       	xor    $0x35353535,%eax
    bc53:	35 35 35 35 35       	xor    $0x35353535,%eax
    bc58:	35 35 35 35 35       	xor    $0x35353535,%eax
    bc5d:	35 35 35 35 35       	xor    $0x35353535,%eax
    bc62:	35 35 35 35 35       	xor    $0x35353535,%eax
    bc67:	35 35 35 35 35       	xor    $0x35353535,%eax
    bc6c:	35 35 35 35 35       	xor    $0x35353535,%eax
    bc71:	35 35 35 35 35       	xor    $0x35353535,%eax
    bc76:	35 35 35 35 35       	xor    $0x35353535,%eax
    bc7b:	35 35 35 35 35       	xor    $0x35353535,%eax
    bc80:	35 35 35 35 35       	xor    $0x35353535,%eax
    bc85:	35 35 35 35 35       	xor    $0x35353535,%eax
    bc8a:	35 35 35 35 35       	xor    $0x35353535,%eax
    bc8f:	35 35 35 35 35       	xor    $0x35353535,%eax
    bc94:	35 35 35 35 35       	xor    $0x35353535,%eax
    bc99:	35 35 35 35 35       	xor    $0x35353535,%eax
    bc9e:	35 35 35 35 35       	xor    $0x35353535,%eax
    bca3:	35 35 35 35 35       	xor    $0x35353535,%eax
    bca8:	35 35 35 35 35       	xor    $0x35353535,%eax
    bcad:	35 35 35 35 35       	xor    $0x35353535,%eax
    bcb2:	35 35 35 35 35       	xor    $0x35353535,%eax
    bcb7:	35 35 35 35 35       	xor    $0x35353535,%eax
    bcbc:	35 35 35 35 35       	xor    $0x35353535,%eax
    bcc1:	35 35 35 35 35       	xor    $0x35353535,%eax
    bcc6:	35 35 35 35 35       	xor    $0x35353535,%eax
    bccb:	35 35 35 35 35       	xor    $0x35353535,%eax
    bcd0:	35 35 35 35 35       	xor    $0x35353535,%eax
    bcd5:	35 35 35 35 35       	xor    $0x35353535,%eax
    bcda:	35 35 35 35 35       	xor    $0x35353535,%eax
    bcdf:	35 35 35 35 35       	xor    $0x35353535,%eax
    bce4:	35 35 35 35 35       	xor    $0x35353535,%eax
    bce9:	35 35 35 35 35       	xor    $0x35353535,%eax
    bcee:	35 35 35 35 35       	xor    $0x35353535,%eax
    bcf3:	35 35 35 35 35       	xor    $0x35353535,%eax
    bcf8:	35 35 35 35 35       	xor    $0x35353535,%eax
    bcfd:	35 35 35 35 35       	xor    $0x35353535,%eax
    bd02:	35 35 35 35 35       	xor    $0x35353535,%eax
    bd07:	35 35 35 35 35       	xor    $0x35353535,%eax
    bd0c:	35 35 35 35 35       	xor    $0x35353535,%eax
    bd11:	35 35 35 35 35       	xor    $0x35353535,%eax
    bd16:	35 35 35 35 35       	xor    $0x35353535,%eax
    bd1b:	35 35 35 35 35       	xor    $0x35353535,%eax
    bd20:	35 35 35 35 35       	xor    $0x35353535,%eax
    bd25:	35 35 35 35 35       	xor    $0x35353535,%eax
    bd2a:	35 35 35 35 35       	xor    $0x35353535,%eax
    bd2f:	35 35 35 35 35       	xor    $0x35353535,%eax
    bd34:	35 35 35 35 35       	xor    $0x35353535,%eax
    bd39:	35 35 35 35 35       	xor    $0x35353535,%eax
    bd3e:	35 35 35 35 35       	xor    $0x35353535,%eax
    bd43:	35 35 35 35 35       	xor    $0x35353535,%eax
    bd48:	35 35 35 35 35       	xor    $0x35353535,%eax
    bd4d:	35 35 35 35 35       	xor    $0x35353535,%eax
    bd52:	35 35 35 35 35       	xor    $0x35353535,%eax
    bd57:	35 35 35 35 35       	xor    $0x35353535,%eax
    bd5c:	35 35 35 35 35       	xor    $0x35353535,%eax
    bd61:	35 35 35 35 35       	xor    $0x35353535,%eax
    bd66:	35 35 35 35 35       	xor    $0x35353535,%eax
    bd6b:	35 35 35 35 35       	xor    $0x35353535,%eax
    bd70:	35 35 35 35 35       	xor    $0x35353535,%eax
    bd75:	35 35 35 35 35       	xor    $0x35353535,%eax
    bd7a:	35 35 35 35 35       	xor    $0x35353535,%eax
    bd7f:	35 35 35 35 35       	xor    $0x35353535,%eax
    bd84:	35 35 35 35 35       	xor    $0x35353535,%eax
    bd89:	35 35 35 35 35       	xor    $0x35353535,%eax
    bd8e:	35 35 35 35 35       	xor    $0x35353535,%eax
    bd93:	35 35 35 35 35       	xor    $0x35353535,%eax
    bd98:	35 35 35 35 35       	xor    $0x35353535,%eax
    bd9d:	35 35 35 35 35       	xor    $0x35353535,%eax
    bda2:	35 35 35 35 35       	xor    $0x35353535,%eax
    bda7:	35 35 35 35 35       	xor    $0x35353535,%eax
    bdac:	35 35 35 35 35       	xor    $0x35353535,%eax
    bdb1:	35 35 35 35 35       	xor    $0x35353535,%eax
    bdb6:	35 35 35 35 35       	xor    $0x35353535,%eax
    bdbb:	35 35 35 35 35       	xor    $0x35353535,%eax
    bdc0:	35 35 35 35 35       	xor    $0x35353535,%eax
    bdc5:	35 35 35 35 35       	xor    $0x35353535,%eax
    bdca:	35 35 35 35 35       	xor    $0x35353535,%eax
    bdcf:	35 35 35 35 35       	xor    $0x35353535,%eax
    bdd4:	35 35 35 35 35       	xor    $0x35353535,%eax
    bdd9:	35 35 35 35 35       	xor    $0x35353535,%eax
    bdde:	35 35 35 35 35       	xor    $0x35353535,%eax
    bde3:	35 35 35 35 35       	xor    $0x35353535,%eax
    bde8:	35 35 35 35 35       	xor    $0x35353535,%eax
    bded:	35 35 35 35 35       	xor    $0x35353535,%eax
    bdf2:	35 35 35 35 35       	xor    $0x35353535,%eax
    bdf7:	35 35 35 35 35       	xor    $0x35353535,%eax
    bdfc:	35 35 35 35 35       	xor    $0x35353535,%eax
    be01:	35 35 35 35 35       	xor    $0x35353535,%eax
    be06:	35 35 35 35 35       	xor    $0x35353535,%eax
    be0b:	35 35 35 35 35       	xor    $0x35353535,%eax
    be10:	35 35 35 35 35       	xor    $0x35353535,%eax
    be15:	35 35 35 35 35       	xor    $0x35353535,%eax
    be1a:	35 35 35 35 35       	xor    $0x35353535,%eax
    be1f:	35 35 35 35 35       	xor    $0x35353535,%eax
    be24:	35 35 35 35 35       	xor    $0x35353535,%eax
    be29:	35 35 35 35 35       	xor    $0x35353535,%eax
    be2e:	35 35 35 35 35       	xor    $0x35353535,%eax
    be33:	35 35 35 35 35       	xor    $0x35353535,%eax
    be38:	35 35 35 35 35       	xor    $0x35353535,%eax
    be3d:	35 35 35 35 35       	xor    $0x35353535,%eax
    be42:	35 35 35 35 35       	xor    $0x35353535,%eax
    be47:	35 35 35 35 35       	xor    $0x35353535,%eax
    be4c:	35 35 35 35 35       	xor    $0x35353535,%eax
    be51:	35 35 35 35 35       	xor    $0x35353535,%eax
    be56:	35 35 35 35 35       	xor    $0x35353535,%eax
    be5b:	35 35 35 35 35       	xor    $0x35353535,%eax
    be60:	35 35 35 35 35       	xor    $0x35353535,%eax
    be65:	35 35 35 35 35       	xor    $0x35353535,%eax
    be6a:	35 35 35 35 35       	xor    $0x35353535,%eax
    be6f:	35 35 35 35 35       	xor    $0x35353535,%eax
    be74:	35 35 35 35 35       	xor    $0x35353535,%eax
    be79:	35 35 35 35 35       	xor    $0x35353535,%eax
    be7e:	35 35 35 35 35       	xor    $0x35353535,%eax
    be83:	35 35 35 35 35       	xor    $0x35353535,%eax
    be88:	35 35 35 35 35       	xor    $0x35353535,%eax
    be8d:	35 35 35 35 35       	xor    $0x35353535,%eax
    be92:	35 35 35 35 35       	xor    $0x35353535,%eax
    be97:	35 35 35 35 35       	xor    $0x35353535,%eax
    be9c:	35 35 35 35 35       	xor    $0x35353535,%eax
    bea1:	35 35 35 35 35       	xor    $0x35353535,%eax
    bea6:	35 35 35 35 35       	xor    $0x35353535,%eax
    beab:	35 35 35 35 35       	xor    $0x35353535,%eax
    beb0:	35 35 35 35 35       	xor    $0x35353535,%eax
    beb5:	35 35 35 35 35       	xor    $0x35353535,%eax
    beba:	35 35 35 35 35       	xor    $0x35353535,%eax
    bebf:	35 35 35 35 35       	xor    $0x35353535,%eax
    bec4:	35 35 35 35 35       	xor    $0x35353535,%eax
    bec9:	35 35 35 35 35       	xor    $0x35353535,%eax
    bece:	35 35 35 35 35       	xor    $0x35353535,%eax
    bed3:	35 35 35 35 35       	xor    $0x35353535,%eax
    bed8:	35 35 35 35 35       	xor    $0x35353535,%eax
    bedd:	35 35 35 35 35       	xor    $0x35353535,%eax
    bee2:	35 35 35 35 35       	xor    $0x35353535,%eax
    bee7:	35 35 35 35 35       	xor    $0x35353535,%eax
    beec:	35 35 35 35 35       	xor    $0x35353535,%eax
    bef1:	35 35 35 35 35       	xor    $0x35353535,%eax
    bef6:	35 35 35 35 35       	xor    $0x35353535,%eax
    befb:	35 35 35 35 35       	xor    $0x35353535,%eax
    bf00:	35 35 35 35 35       	xor    $0x35353535,%eax
    bf05:	35 35 35 35 35       	xor    $0x35353535,%eax
    bf0a:	35 35 35 35 35       	xor    $0x35353535,%eax
    bf0f:	35 35 35 35 35       	xor    $0x35353535,%eax
    bf14:	35 35 35 35 35       	xor    $0x35353535,%eax
    bf19:	35 35 35 35 35       	xor    $0x35353535,%eax
    bf1e:	35 35 35 35 35       	xor    $0x35353535,%eax
    bf23:	35 35 35 35 35       	xor    $0x35353535,%eax
    bf28:	35 35 35 35 35       	xor    $0x35353535,%eax
    bf2d:	35 35 35 35 35       	xor    $0x35353535,%eax
    bf32:	35 35 35 35 35       	xor    $0x35353535,%eax
    bf37:	35 35 35 35 35       	xor    $0x35353535,%eax
    bf3c:	35 35 35 35 35       	xor    $0x35353535,%eax
    bf41:	35 35 35 35 35       	xor    $0x35353535,%eax
    bf46:	35 35 35 35 35       	xor    $0x35353535,%eax
    bf4b:	35 35 35 35 35       	xor    $0x35353535,%eax
    bf50:	35 35 35 35 35       	xor    $0x35353535,%eax
    bf55:	35 35 35 35 35       	xor    $0x35353535,%eax
    bf5a:	35 35 35 35 35       	xor    $0x35353535,%eax
    bf5f:	35 35 35 35 35       	xor    $0x35353535,%eax
    bf64:	35 35 35 35 35       	xor    $0x35353535,%eax
    bf69:	35 35 35 35 35       	xor    $0x35353535,%eax
    bf6e:	35 35 35 35 35       	xor    $0x35353535,%eax
    bf73:	35 35 35 35 35       	xor    $0x35353535,%eax
    bf78:	35 35 35 35 35       	xor    $0x35353535,%eax
    bf7d:	35 35 35 35 35       	xor    $0x35353535,%eax
    bf82:	35 35 35 35 35       	xor    $0x35353535,%eax
    bf87:	35 35 35 35 35       	xor    $0x35353535,%eax
    bf8c:	35 35 35 35 35       	xor    $0x35353535,%eax
    bf91:	35 35 35 35 35       	xor    $0x35353535,%eax
    bf96:	35 35 35 35 35       	xor    $0x35353535,%eax
    bf9b:	35 35 35 35 35       	xor    $0x35353535,%eax
    bfa0:	35 35 35 35 35       	xor    $0x35353535,%eax
    bfa5:	35 35 35 35 35       	xor    $0x35353535,%eax
    bfaa:	35 35 35 35 35       	xor    $0x35353535,%eax
    bfaf:	35 35 35 35 35       	xor    $0x35353535,%eax
    bfb4:	35 35 35 35 35       	xor    $0x35353535,%eax
    bfb9:	35 35 35 35 35       	xor    $0x35353535,%eax
    bfbe:	35 35 35 35 35       	xor    $0x35353535,%eax
    bfc3:	35 35 35 35 35       	xor    $0x35353535,%eax
    bfc8:	35 35 35 35 35       	xor    $0x35353535,%eax
    bfcd:	35 35 35 35 35       	xor    $0x35353535,%eax
    bfd2:	35 35 35 35 35       	xor    $0x35353535,%eax
    bfd7:	35 35 35 35 35       	xor    $0x35353535,%eax
    bfdc:	35 35 35 35 35       	xor    $0x35353535,%eax
    bfe1:	35 35 35 35 35       	xor    $0x35353535,%eax
    bfe6:	35 35 35 35 35       	xor    $0x35353535,%eax
    bfeb:	35 35 35 35 35       	xor    $0x35353535,%eax
    bff0:	35 35 35 35 35       	xor    $0x35353535,%eax
    bff5:	35 35 35 35 35       	xor    $0x35353535,%eax
    bffa:	35 35 35 35 35       	xor    $0x35353535,%eax
    bfff:	35 35 35 35 35       	xor    $0x35353535,%eax
    c004:	35 35 35 35 35       	xor    $0x35353535,%eax
    c009:	35 35 35 35 35       	xor    $0x35353535,%eax
    c00e:	35 35 35 35 35       	xor    $0x35353535,%eax
    c013:	35 35 35 35 35       	xor    $0x35353535,%eax
    c018:	35 35 35 35 35       	xor    $0x35353535,%eax
    c01d:	35 35 35 35 35       	xor    $0x35353535,%eax
    c022:	35 35 35 35 35       	xor    $0x35353535,%eax
    c027:	35 35 35 35 35       	xor    $0x35353535,%eax
    c02c:	35 35 35 35 35       	xor    $0x35353535,%eax
    c031:	35 35 35 35 35       	xor    $0x35353535,%eax
    c036:	35 35 35 35 35       	xor    $0x35353535,%eax
    c03b:	35 35 35 35 35       	xor    $0x35353535,%eax
    c040:	35 35 35 35 35       	xor    $0x35353535,%eax
    c045:	35 35 35 35 35       	xor    $0x35353535,%eax
    c04a:	35 35 35 35 35       	xor    $0x35353535,%eax
    c04f:	35 35 35 35 35       	xor    $0x35353535,%eax
    c054:	35 35 35 35 35       	xor    $0x35353535,%eax
    c059:	35 35 35 35 35       	xor    $0x35353535,%eax
    c05e:	35 35 35 35 35       	xor    $0x35353535,%eax
    c063:	35 35 35 35 35       	xor    $0x35353535,%eax
    c068:	35 35 35 35 35       	xor    $0x35353535,%eax
    c06d:	35 35 35 35 35       	xor    $0x35353535,%eax
    c072:	35 35 35 35 35       	xor    $0x35353535,%eax
    c077:	35 35 35 35 35       	xor    $0x35353535,%eax
    c07c:	35 35 35 35 35       	xor    $0x35353535,%eax
    c081:	35 35 35 35 35       	xor    $0x35353535,%eax
    c086:	35 35 35 35 35       	xor    $0x35353535,%eax
    c08b:	35 35 35 35 35       	xor    $0x35353535,%eax
    c090:	35 35 35 35 35       	xor    $0x35353535,%eax
    c095:	35 35 35 35 35       	xor    $0x35353535,%eax
    c09a:	35 35 35 35 35       	xor    $0x35353535,%eax
    c09f:	35 35 35 35 35       	xor    $0x35353535,%eax
    c0a4:	35 35 35 35 35       	xor    $0x35353535,%eax
    c0a9:	35 35 35 35 35       	xor    $0x35353535,%eax
    c0ae:	35 35 35 35 35       	xor    $0x35353535,%eax
    c0b3:	35 35 35 35 35       	xor    $0x35353535,%eax
    c0b8:	35 35 35 35 35       	xor    $0x35353535,%eax
    c0bd:	35 35 35 35 35       	xor    $0x35353535,%eax
    c0c2:	35 35 35 35 35       	xor    $0x35353535,%eax
    c0c7:	35 35 35 35 35       	xor    $0x35353535,%eax
    c0cc:	35 35 35 35 35       	xor    $0x35353535,%eax
    c0d1:	35 35 35 35 35       	xor    $0x35353535,%eax
    c0d6:	35 35 35 35 35       	xor    $0x35353535,%eax
    c0db:	35 35 35 35 35       	xor    $0x35353535,%eax
    c0e0:	35 35 35 35 35       	xor    $0x35353535,%eax
    c0e5:	35 35 35 35 35       	xor    $0x35353535,%eax
    c0ea:	35 35 35 35 35       	xor    $0x35353535,%eax
    c0ef:	35 35 35 35 35       	xor    $0x35353535,%eax
    c0f4:	35 35 35 35 35       	xor    $0x35353535,%eax
    c0f9:	35 35 35 35 35       	xor    $0x35353535,%eax
    c0fe:	35 35 35 35 35       	xor    $0x35353535,%eax
    c103:	35 35 35 35 35       	xor    $0x35353535,%eax
    c108:	35 35 35 35 35       	xor    $0x35353535,%eax
    c10d:	35 35 35 35 35       	xor    $0x35353535,%eax
    c112:	35 35 35 35 35       	xor    $0x35353535,%eax
    c117:	35 35 35 35 35       	xor    $0x35353535,%eax
    c11c:	35 35 35 35 35       	xor    $0x35353535,%eax
    c121:	35 35 35 35 35       	xor    $0x35353535,%eax
    c126:	35 35 35 35 35       	xor    $0x35353535,%eax
    c12b:	35 35 35 35 35       	xor    $0x35353535,%eax
    c130:	35 35 35 35 35       	xor    $0x35353535,%eax
    c135:	35 35 35 35 35       	xor    $0x35353535,%eax
    c13a:	35 35 35 35 35       	xor    $0x35353535,%eax
    c13f:	35 35 35 35 35       	xor    $0x35353535,%eax
    c144:	35 35 35 35 35       	xor    $0x35353535,%eax
    c149:	35 35 35 35 35       	xor    $0x35353535,%eax
    c14e:	35 35 35 35 35       	xor    $0x35353535,%eax
    c153:	35 35 35 35 35       	xor    $0x35353535,%eax
    c158:	35 35 35 35 35       	xor    $0x35353535,%eax
    c15d:	35 35 35 35 35       	xor    $0x35353535,%eax
    c162:	35 35 35 35 35       	xor    $0x35353535,%eax
    c167:	35 35 35 35 35       	xor    $0x35353535,%eax
    c16c:	35 35 35 35 35       	xor    $0x35353535,%eax
    c171:	35 35 35 35 35       	xor    $0x35353535,%eax
    c176:	35 35 35 35 35       	xor    $0x35353535,%eax
    c17b:	35 35 35 35 35       	xor    $0x35353535,%eax
    c180:	35 35 35 35 35       	xor    $0x35353535,%eax
    c185:	35 35 35 35 35       	xor    $0x35353535,%eax
    c18a:	35 35 35 35 35       	xor    $0x35353535,%eax
    c18f:	35 35 35 35 35       	xor    $0x35353535,%eax
    c194:	35 35 35 35 35       	xor    $0x35353535,%eax
    c199:	35 35 35 35 35       	xor    $0x35353535,%eax
    c19e:	35 35 35 35 35       	xor    $0x35353535,%eax
    c1a3:	35 35 35 35 35       	xor    $0x35353535,%eax
    c1a8:	35 35 35 35 35       	xor    $0x35353535,%eax
    c1ad:	35 35 35 35 35       	xor    $0x35353535,%eax
    c1b2:	35 35 35 35 35       	xor    $0x35353535,%eax
    c1b7:	35 35 35 35 35       	xor    $0x35353535,%eax
    c1bc:	35 35 35 35 35       	xor    $0x35353535,%eax
    c1c1:	35 35 35 35 35       	xor    $0x35353535,%eax
    c1c6:	35 35 35 35 35       	xor    $0x35353535,%eax
    c1cb:	35 35 35 35 35       	xor    $0x35353535,%eax
    c1d0:	35 35 35 35 35       	xor    $0x35353535,%eax
    c1d5:	35 35 35 35 35       	xor    $0x35353535,%eax
    c1da:	35 35 35 35 35       	xor    $0x35353535,%eax
    c1df:	35 35 35 35 35       	xor    $0x35353535,%eax
    c1e4:	35 35 35 35 35       	xor    $0x35353535,%eax
    c1e9:	35 35 35 35 35       	xor    $0x35353535,%eax
    c1ee:	35 35 35 35 35       	xor    $0x35353535,%eax
    c1f3:	35 35 35 35 35       	xor    $0x35353535,%eax
    c1f8:	35 35 35 35 35       	xor    $0x35353535,%eax
    c1fd:	35 35 35 35 35       	xor    $0x35353535,%eax
    c202:	35 35 35 35 35       	xor    $0x35353535,%eax
    c207:	35 35 35 35 35       	xor    $0x35353535,%eax
    c20c:	35 35 35 35 35       	xor    $0x35353535,%eax
    c211:	35 35 35 35 35       	xor    $0x35353535,%eax
    c216:	35 35 35 35 35       	xor    $0x35353535,%eax
    c21b:	35 35 35 35 35       	xor    $0x35353535,%eax
    c220:	35 35 35 35 35       	xor    $0x35353535,%eax
    c225:	35 35 35 35 35       	xor    $0x35353535,%eax
    c22a:	35 35 35 35 35       	xor    $0x35353535,%eax
    c22f:	35 35 35 35 35       	xor    $0x35353535,%eax
    c234:	35 35 35 35 35       	xor    $0x35353535,%eax
    c239:	35 35 35 35 35       	xor    $0x35353535,%eax
    c23e:	35 35 35 35 35       	xor    $0x35353535,%eax
    c243:	35 35 35 35 35       	xor    $0x35353535,%eax
    c248:	35 35 35 35 35       	xor    $0x35353535,%eax
    c24d:	35 35 35 35 35       	xor    $0x35353535,%eax
    c252:	35 35 35 35 35       	xor    $0x35353535,%eax
    c257:	35 35 35 35 35       	xor    $0x35353535,%eax
    c25c:	35 35 35 35 35       	xor    $0x35353535,%eax
    c261:	35 35 35 35 35       	xor    $0x35353535,%eax
    c266:	35 35 35 35 35       	xor    $0x35353535,%eax
    c26b:	35 35 35 35 35       	xor    $0x35353535,%eax
    c270:	35 35 35 35 35       	xor    $0x35353535,%eax
    c275:	35 35 35 35 35       	xor    $0x35353535,%eax
    c27a:	35 35 35 35 35       	xor    $0x35353535,%eax
    c27f:	35 35 35 35 35       	xor    $0x35353535,%eax
    c284:	35 35 35 35 35       	xor    $0x35353535,%eax
    c289:	35 35 35 35 35       	xor    $0x35353535,%eax
    c28e:	35 35 35 35 35       	xor    $0x35353535,%eax
    c293:	35 35 35 35 35       	xor    $0x35353535,%eax
    c298:	35 35 35 35 35       	xor    $0x35353535,%eax
    c29d:	35 35 35 35 35       	xor    $0x35353535,%eax
    c2a2:	35 35 35 35 35       	xor    $0x35353535,%eax
    c2a7:	35 35 35 35 35       	xor    $0x35353535,%eax
    c2ac:	35 35 35 35 35       	xor    $0x35353535,%eax
    c2b1:	35 35 35 35 35       	xor    $0x35353535,%eax
    c2b6:	35 35 35 35 35       	xor    $0x35353535,%eax
    c2bb:	35 35 35 35 35       	xor    $0x35353535,%eax
    c2c0:	35 35 35 35 35       	xor    $0x35353535,%eax
    c2c5:	35 35 35 35 35       	xor    $0x35353535,%eax
    c2ca:	35 35 35 35 35       	xor    $0x35353535,%eax
    c2cf:	35 35 35 35 35       	xor    $0x35353535,%eax
    c2d4:	35 35 35 35 35       	xor    $0x35353535,%eax
    c2d9:	35 35 35 35 35       	xor    $0x35353535,%eax
    c2de:	35 35 35 35 35       	xor    $0x35353535,%eax
    c2e3:	35 35 35 35 35       	xor    $0x35353535,%eax
    c2e8:	35 35 35 35 35       	xor    $0x35353535,%eax
    c2ed:	35 35 35 35 35       	xor    $0x35353535,%eax
    c2f2:	35 35 35 35 35       	xor    $0x35353535,%eax
    c2f7:	35 35 35 35 35       	xor    $0x35353535,%eax
    c2fc:	35 35 35 35 35       	xor    $0x35353535,%eax
    c301:	35 35 35 35 35       	xor    $0x35353535,%eax
    c306:	35 35 35 35 35       	xor    $0x35353535,%eax
    c30b:	35 35 35 35 35       	xor    $0x35353535,%eax
    c310:	35 35 35 35 35       	xor    $0x35353535,%eax
    c315:	35 35 35 35 35       	xor    $0x35353535,%eax
    c31a:	35 35 35 35 35       	xor    $0x35353535,%eax
    c31f:	35 35 35 35 35       	xor    $0x35353535,%eax
    c324:	35 35 35 35 35       	xor    $0x35353535,%eax
    c329:	35 35 35 35 35       	xor    $0x35353535,%eax
    c32e:	35 35 35 35 35       	xor    $0x35353535,%eax
    c333:	35 35 35 35 35       	xor    $0x35353535,%eax
    c338:	35 35 35 35 35       	xor    $0x35353535,%eax
    c33d:	35 35 35 35 35       	xor    $0x35353535,%eax
    c342:	35 35 35 35 35       	xor    $0x35353535,%eax
    c347:	35 35 35 35 35       	xor    $0x35353535,%eax
    c34c:	35 35 35 35 35       	xor    $0x35353535,%eax
    c351:	35 35 35 35 35       	xor    $0x35353535,%eax
    c356:	35 35 35 35 35       	xor    $0x35353535,%eax
    c35b:	35 35 35 35 35       	xor    $0x35353535,%eax
    c360:	35 35 35 35 35       	xor    $0x35353535,%eax
    c365:	35 35 35 35 35       	xor    $0x35353535,%eax
    c36a:	35 35 35 35 35       	xor    $0x35353535,%eax
    c36f:	35 35 35 35 35       	xor    $0x35353535,%eax
    c374:	35 35 35 35 35       	xor    $0x35353535,%eax
    c379:	35 35 35 35 35       	xor    $0x35353535,%eax
    c37e:	35 35 35 35 35       	xor    $0x35353535,%eax
    c383:	35 35 35 35 35       	xor    $0x35353535,%eax
    c388:	35 35 35 35 35       	xor    $0x35353535,%eax
    c38d:	35 35 35 35 35       	xor    $0x35353535,%eax
    c392:	35 35 35 35 35       	xor    $0x35353535,%eax
    c397:	35 35 35 35 35       	xor    $0x35353535,%eax
    c39c:	35 35 35 35 35       	xor    $0x35353535,%eax
    c3a1:	35 35 35 35 35       	xor    $0x35353535,%eax
    c3a6:	35 35 35 35 35       	xor    $0x35353535,%eax
    c3ab:	35 35 35 35 35       	xor    $0x35353535,%eax
    c3b0:	35 35 35 35 35       	xor    $0x35353535,%eax
    c3b5:	35 35 35 35 35       	xor    $0x35353535,%eax
    c3ba:	35 35 35 35 35       	xor    $0x35353535,%eax
    c3bf:	35 35 35 35 35       	xor    $0x35353535,%eax
    c3c4:	35 35 35 35 35       	xor    $0x35353535,%eax
    c3c9:	35 35 35 35 35       	xor    $0x35353535,%eax
    c3ce:	35 35 35 35 35       	xor    $0x35353535,%eax
    c3d3:	35 35 35 35 35       	xor    $0x35353535,%eax
    c3d8:	35 35 35 35 35       	xor    $0x35353535,%eax
    c3dd:	35 35 35 35 35       	xor    $0x35353535,%eax
    c3e2:	35 35 35 35 35       	xor    $0x35353535,%eax
    c3e7:	35 35 35 35 35       	xor    $0x35353535,%eax
    c3ec:	35 35 35 35 35       	xor    $0x35353535,%eax
    c3f1:	35 35 35 35 35       	xor    $0x35353535,%eax
    c3f6:	35 35 35 35 35       	xor    $0x35353535,%eax
    c3fb:	35 35 35 35 35       	xor    $0x35353535,%eax
    c400:	35 35 35 35 35       	xor    $0x35353535,%eax
    c405:	35 35 35 35 35       	xor    $0x35353535,%eax
    c40a:	35 35 35 35 35       	xor    $0x35353535,%eax
    c40f:	35 35 35 35 35       	xor    $0x35353535,%eax
    c414:	35 35 35 35 35       	xor    $0x35353535,%eax
    c419:	35 35 35 35 35       	xor    $0x35353535,%eax
    c41e:	35 35 35 35 35       	xor    $0x35353535,%eax
    c423:	35 35 35 35 35       	xor    $0x35353535,%eax
    c428:	35 35 35 35 35       	xor    $0x35353535,%eax
    c42d:	35 35 35 35 35       	xor    $0x35353535,%eax
    c432:	35 35 35 35 35       	xor    $0x35353535,%eax
    c437:	35 35 35 35 35       	xor    $0x35353535,%eax
    c43c:	35 35 35 35 35       	xor    $0x35353535,%eax
    c441:	35 35 35 35 35       	xor    $0x35353535,%eax
    c446:	35 35 35 35 35       	xor    $0x35353535,%eax
    c44b:	35 35 35 35 35       	xor    $0x35353535,%eax
    c450:	35 35 35 35 35       	xor    $0x35353535,%eax
    c455:	35 35 35 35 35       	xor    $0x35353535,%eax
    c45a:	35 35 35 35 35       	xor    $0x35353535,%eax
    c45f:	35 35 35 35 35       	xor    $0x35353535,%eax
    c464:	35 35 35 35 35       	xor    $0x35353535,%eax
    c469:	35 35 35 35 35       	xor    $0x35353535,%eax
    c46e:	35 35 35 35 35       	xor    $0x35353535,%eax
    c473:	35 35 35 35 35       	xor    $0x35353535,%eax
    c478:	35 35 35 35 35       	xor    $0x35353535,%eax
    c47d:	35 35 35 35 35       	xor    $0x35353535,%eax
    c482:	35 35 35 35 35       	xor    $0x35353535,%eax
    c487:	35 35 35 35 35       	xor    $0x35353535,%eax
    c48c:	35 35 35 35 35       	xor    $0x35353535,%eax
    c491:	35 35 35 35 35       	xor    $0x35353535,%eax
    c496:	35 35 35 35 35       	xor    $0x35353535,%eax
    c49b:	35 35 35 35 35       	xor    $0x35353535,%eax
    c4a0:	35 35 35 35 35       	xor    $0x35353535,%eax
    c4a5:	35 35 35 35 35       	xor    $0x35353535,%eax
    c4aa:	35 35 35 35 35       	xor    $0x35353535,%eax
    c4af:	35 35 35 35 35       	xor    $0x35353535,%eax
    c4b4:	35 35 35 35 35       	xor    $0x35353535,%eax
    c4b9:	35 35 35 35 35       	xor    $0x35353535,%eax
    c4be:	35 35 35 35 35       	xor    $0x35353535,%eax
    c4c3:	35 35 35 35 35       	xor    $0x35353535,%eax
    c4c8:	35 35 35 35 35       	xor    $0x35353535,%eax
    c4cd:	35 35 35 35 35       	xor    $0x35353535,%eax
    c4d2:	35 35 35 35 35       	xor    $0x35353535,%eax
    c4d7:	35 35 35 35 35       	xor    $0x35353535,%eax
    c4dc:	35 35 35 35 35       	xor    $0x35353535,%eax
    c4e1:	35 35 35 35 35       	xor    $0x35353535,%eax
    c4e6:	35 35 35 35 35       	xor    $0x35353535,%eax
    c4eb:	35 35 35 35 35       	xor    $0x35353535,%eax
    c4f0:	35 35 35 35 35       	xor    $0x35353535,%eax
    c4f5:	35 35 35 35 35       	xor    $0x35353535,%eax
    c4fa:	35 35 35 35 35       	xor    $0x35353535,%eax
    c4ff:	35 35 35 35 35       	xor    $0x35353535,%eax
    c504:	35 35 35 35 35       	xor    $0x35353535,%eax
    c509:	35 35 35 35 35       	xor    $0x35353535,%eax
    c50e:	35 35 35 35 35       	xor    $0x35353535,%eax
    c513:	35 35 35 35 35       	xor    $0x35353535,%eax
    c518:	35 35 35 35 35       	xor    $0x35353535,%eax
    c51d:	35 35 35 35 35       	xor    $0x35353535,%eax
    c522:	35 35 35 35 35       	xor    $0x35353535,%eax
    c527:	35 35 35 35 35       	xor    $0x35353535,%eax
    c52c:	35 35 35 35 35       	xor    $0x35353535,%eax
    c531:	35 35 35 35 35       	xor    $0x35353535,%eax
    c536:	35 35 35 35 35       	xor    $0x35353535,%eax
    c53b:	35 35 35 35 35       	xor    $0x35353535,%eax
    c540:	35 35 35 35 35       	xor    $0x35353535,%eax
    c545:	35 35 35 35 35       	xor    $0x35353535,%eax
    c54a:	35 35 35 35 35       	xor    $0x35353535,%eax
    c54f:	35 35 35 35 35       	xor    $0x35353535,%eax
    c554:	35 35 35 35 35       	xor    $0x35353535,%eax
    c559:	35 35 35 35 35       	xor    $0x35353535,%eax
    c55e:	35 35 35 35 35       	xor    $0x35353535,%eax
    c563:	35 35 35 35 35       	xor    $0x35353535,%eax
    c568:	35 35 35 35 35       	xor    $0x35353535,%eax
    c56d:	35 35 35 35 35       	xor    $0x35353535,%eax
    c572:	35 35 35 35 35       	xor    $0x35353535,%eax
    c577:	35 35 35 35 35       	xor    $0x35353535,%eax
    c57c:	35 35 35 35 35       	xor    $0x35353535,%eax
    c581:	35 35 35 35 35       	xor    $0x35353535,%eax
    c586:	35 35 35 35 35       	xor    $0x35353535,%eax
    c58b:	35 35 35 35 35       	xor    $0x35353535,%eax
    c590:	35 35 35 35 35       	xor    $0x35353535,%eax
    c595:	35 35 35 35 35       	xor    $0x35353535,%eax
    c59a:	35 35 35 35 35       	xor    $0x35353535,%eax
    c59f:	35 35 35 35 35       	xor    $0x35353535,%eax
    c5a4:	35 35 35 35 35       	xor    $0x35353535,%eax
    c5a9:	35 35 35 35 35       	xor    $0x35353535,%eax
    c5ae:	35 35 35 35 35       	xor    $0x35353535,%eax
    c5b3:	35 35 35 35 35       	xor    $0x35353535,%eax
    c5b8:	35 35 35 35 35       	xor    $0x35353535,%eax
    c5bd:	35 35 35 35 35       	xor    $0x35353535,%eax
    c5c2:	35 35 35 35 35       	xor    $0x35353535,%eax
    c5c7:	35 35 35 35 35       	xor    $0x35353535,%eax
    c5cc:	35 35 35 35 35       	xor    $0x35353535,%eax
    c5d1:	35 35 35 35 35       	xor    $0x35353535,%eax
    c5d6:	35 35 35 35 35       	xor    $0x35353535,%eax
    c5db:	35 35 35 35 35       	xor    $0x35353535,%eax
    c5e0:	35 35 35 35 35       	xor    $0x35353535,%eax
    c5e5:	35 35 35 35 35       	xor    $0x35353535,%eax
    c5ea:	35 35 35 35 35       	xor    $0x35353535,%eax
    c5ef:	35 35 35 35 35       	xor    $0x35353535,%eax
    c5f4:	35 35 35 35 35       	xor    $0x35353535,%eax
    c5f9:	35 35 35 35 35       	xor    $0x35353535,%eax
    c5fe:	35 35 35 35 35       	xor    $0x35353535,%eax
    c603:	35 35 35 35 35       	xor    $0x35353535,%eax
    c608:	35 35 35 35 35       	xor    $0x35353535,%eax
    c60d:	35 35 35 35 35       	xor    $0x35353535,%eax
    c612:	35 35 35 35 35       	xor    $0x35353535,%eax
    c617:	35 35 35 35 35       	xor    $0x35353535,%eax
    c61c:	35 35 35 35 35       	xor    $0x35353535,%eax
    c621:	35 35 35 35 35       	xor    $0x35353535,%eax
    c626:	35 35 35 35 35       	xor    $0x35353535,%eax
    c62b:	35 35 35 35 35       	xor    $0x35353535,%eax
    c630:	35 35 35 35 35       	xor    $0x35353535,%eax
    c635:	35 35 35 35 35       	xor    $0x35353535,%eax
    c63a:	35 35 35 35 35       	xor    $0x35353535,%eax
    c63f:	35 35 35 35 35       	xor    $0x35353535,%eax
    c644:	35 35 35 35 35       	xor    $0x35353535,%eax
    c649:	35 35 35 35 35       	xor    $0x35353535,%eax
    c64e:	35 35 35 35 35       	xor    $0x35353535,%eax
    c653:	35 35 35 35 35       	xor    $0x35353535,%eax
    c658:	35 35 35 35 35       	xor    $0x35353535,%eax
    c65d:	35 35 35 35 35       	xor    $0x35353535,%eax
    c662:	35 35 35 35 35       	xor    $0x35353535,%eax
    c667:	35 35 35 35 35       	xor    $0x35353535,%eax
    c66c:	35 35 35 35 35       	xor    $0x35353535,%eax
    c671:	35 35 35 35 35       	xor    $0x35353535,%eax
    c676:	35 35 35 35 35       	xor    $0x35353535,%eax
    c67b:	35 35 35 35 35       	xor    $0x35353535,%eax
    c680:	35 35 35 35 35       	xor    $0x35353535,%eax
    c685:	35 35 35 35 35       	xor    $0x35353535,%eax
    c68a:	35 35 35 35 35       	xor    $0x35353535,%eax
    c68f:	35 35 35 35 35       	xor    $0x35353535,%eax
    c694:	35 35 35 35 35       	xor    $0x35353535,%eax
    c699:	35 35 35 35 35       	xor    $0x35353535,%eax
    c69e:	35 35 35 35 35       	xor    $0x35353535,%eax
    c6a3:	35 35 35 35 35       	xor    $0x35353535,%eax
    c6a8:	35 35 35 35 35       	xor    $0x35353535,%eax
    c6ad:	35 35 35 35 35       	xor    $0x35353535,%eax
    c6b2:	35 35 35 35 35       	xor    $0x35353535,%eax
    c6b7:	35 35 35 35 35       	xor    $0x35353535,%eax
    c6bc:	35 35 35 35 35       	xor    $0x35353535,%eax
    c6c1:	35 35 35 35 35       	xor    $0x35353535,%eax
    c6c6:	35 35 35 35 35       	xor    $0x35353535,%eax
    c6cb:	35 35 35 35 35       	xor    $0x35353535,%eax
    c6d0:	35 35 35 35 35       	xor    $0x35353535,%eax
    c6d5:	35 35 35 35 35       	xor    $0x35353535,%eax
    c6da:	35 35 35 35 35       	xor    $0x35353535,%eax
    c6df:	35 35 35 35 35       	xor    $0x35353535,%eax
    c6e4:	35 35 35 35 35       	xor    $0x35353535,%eax
    c6e9:	35 35 35 35 35       	xor    $0x35353535,%eax
    c6ee:	35 35 35 35 35       	xor    $0x35353535,%eax
    c6f3:	35 35 35 35 35       	xor    $0x35353535,%eax
    c6f8:	35 35 35 35 35       	xor    $0x35353535,%eax
    c6fd:	35 35 35 35 35       	xor    $0x35353535,%eax
    c702:	35 35 35 35 35       	xor    $0x35353535,%eax
    c707:	35 35 35 35 35       	xor    $0x35353535,%eax
    c70c:	35 35 35 35 35       	xor    $0x35353535,%eax
    c711:	35 35 35 35 35       	xor    $0x35353535,%eax
    c716:	35 35 35 35 35       	xor    $0x35353535,%eax
    c71b:	35 35 35 35 35       	xor    $0x35353535,%eax
    c720:	35 35 35 35 35       	xor    $0x35353535,%eax
    c725:	35 35 35 35 35       	xor    $0x35353535,%eax
    c72a:	35 35 35 35 35       	xor    $0x35353535,%eax
    c72f:	35 35 35 35 35       	xor    $0x35353535,%eax
    c734:	35 35 35 35 35       	xor    $0x35353535,%eax
    c739:	35 35 35 35 35       	xor    $0x35353535,%eax
    c73e:	35 35 35 35 35       	xor    $0x35353535,%eax
    c743:	35 35 35 35 35       	xor    $0x35353535,%eax
    c748:	35 35 35 35 35       	xor    $0x35353535,%eax
    c74d:	35 35 35 35 35       	xor    $0x35353535,%eax
    c752:	35 35 35 35 35       	xor    $0x35353535,%eax
    c757:	35 35 35 35 35       	xor    $0x35353535,%eax
    c75c:	35 35 35 35 35       	xor    $0x35353535,%eax
    c761:	35 35 35 35 35       	xor    $0x35353535,%eax
    c766:	35 35 35 35 35       	xor    $0x35353535,%eax
    c76b:	35 35 35 35 35       	xor    $0x35353535,%eax
    c770:	35 35 35 35 35       	xor    $0x35353535,%eax
    c775:	35 35 35 35 35       	xor    $0x35353535,%eax
    c77a:	35 35 35 35 35       	xor    $0x35353535,%eax
    c77f:	35 35 35 35 35       	xor    $0x35353535,%eax
    c784:	35 35 35 35 35       	xor    $0x35353535,%eax
    c789:	35 35 35 35 35       	xor    $0x35353535,%eax
    c78e:	35 35 35 35 35       	xor    $0x35353535,%eax
    c793:	35 35 35 35 35       	xor    $0x35353535,%eax
    c798:	35 35 35 35 35       	xor    $0x35353535,%eax
    c79d:	35 35 35 35 35       	xor    $0x35353535,%eax
    c7a2:	35 35 35 35 35       	xor    $0x35353535,%eax
    c7a7:	35 35 35 35 35       	xor    $0x35353535,%eax
    c7ac:	35 35 35 35 35       	xor    $0x35353535,%eax
    c7b1:	35 35 35 35 35       	xor    $0x35353535,%eax
    c7b6:	35 35 35 35 35       	xor    $0x35353535,%eax
    c7bb:	35 35 35 35 35       	xor    $0x35353535,%eax
    c7c0:	35 35 35 35 35       	xor    $0x35353535,%eax
    c7c5:	35 35 35 35 35       	xor    $0x35353535,%eax
    c7ca:	35 35 35 35 35       	xor    $0x35353535,%eax
    c7cf:	35 35 35 35 35       	xor    $0x35353535,%eax
    c7d4:	35 35 35 35 35       	xor    $0x35353535,%eax
    c7d9:	35 35 35 35 35       	xor    $0x35353535,%eax
    c7de:	35 35 35 35 35       	xor    $0x35353535,%eax
    c7e3:	35 35 35 35 35       	xor    $0x35353535,%eax
    c7e8:	35 35 35 35 35       	xor    $0x35353535,%eax
    c7ed:	35 35 35 35 35       	xor    $0x35353535,%eax
    c7f2:	35 35 35 35 35       	xor    $0x35353535,%eax
    c7f7:	35 35 35 35 35       	xor    $0x35353535,%eax
    c7fc:	35 35 35 35 35       	xor    $0x35353535,%eax
    c801:	35 35 35 35 35       	xor    $0x35353535,%eax
    c806:	35 35 35 35 35       	xor    $0x35353535,%eax
    c80b:	35 35 35 35 35       	xor    $0x35353535,%eax
    c810:	35 35 35 35 35       	xor    $0x35353535,%eax
    c815:	35 35 35 35 35       	xor    $0x35353535,%eax
    c81a:	35 35 35 35 35       	xor    $0x35353535,%eax
    c81f:	35 35 35 35 35       	xor    $0x35353535,%eax
    c824:	35 35 35 35 35       	xor    $0x35353535,%eax
    c829:	35 35 35 35 35       	xor    $0x35353535,%eax
    c82e:	35 35 35 35 35       	xor    $0x35353535,%eax
    c833:	35 35 35 35 35       	xor    $0x35353535,%eax
    c838:	35 35 35 35 35       	xor    $0x35353535,%eax
    c83d:	35 35 35 35 35       	xor    $0x35353535,%eax
    c842:	35 35 35 35 35       	xor    $0x35353535,%eax
    c847:	35 35 35 35 35       	xor    $0x35353535,%eax
    c84c:	35 35 35 35 35       	xor    $0x35353535,%eax
    c851:	35 35 35 35 35       	xor    $0x35353535,%eax
    c856:	35 35 35 35 35       	xor    $0x35353535,%eax
    c85b:	35 35 35 35 35       	xor    $0x35353535,%eax
    c860:	35 35 35 35 35       	xor    $0x35353535,%eax
    c865:	35 35 35 35 35       	xor    $0x35353535,%eax
    c86a:	35 35 35 35 35       	xor    $0x35353535,%eax
    c86f:	35 35 35 35 35       	xor    $0x35353535,%eax
    c874:	35 35 35 35 35       	xor    $0x35353535,%eax
    c879:	35 35 35 35 35       	xor    $0x35353535,%eax
    c87e:	35 35 35 35 35       	xor    $0x35353535,%eax
    c883:	35 35 35 35 35       	xor    $0x35353535,%eax
    c888:	35 35 35 35 35       	xor    $0x35353535,%eax
    c88d:	35 35 35 35 35       	xor    $0x35353535,%eax
    c892:	35 35 35 35 35       	xor    $0x35353535,%eax
    c897:	35 35 35 35 35       	xor    $0x35353535,%eax
    c89c:	35 35 35 35 35       	xor    $0x35353535,%eax
    c8a1:	35 35 35 35 35       	xor    $0x35353535,%eax
    c8a6:	35 35 35 35 35       	xor    $0x35353535,%eax
    c8ab:	35 35 35 35 35       	xor    $0x35353535,%eax
    c8b0:	35 35 35 35 35       	xor    $0x35353535,%eax
    c8b5:	35 35 35 35 35       	xor    $0x35353535,%eax
    c8ba:	35 35 35 35 35       	xor    $0x35353535,%eax
    c8bf:	35 35 35 35 35       	xor    $0x35353535,%eax
    c8c4:	35 35 35 35 35       	xor    $0x35353535,%eax
    c8c9:	35 35 35 35 35       	xor    $0x35353535,%eax
    c8ce:	35 35 35 35 35       	xor    $0x35353535,%eax
    c8d3:	35 35 35 35 35       	xor    $0x35353535,%eax
    c8d8:	35 35 35 35 35       	xor    $0x35353535,%eax
    c8dd:	35 35 35 35 35       	xor    $0x35353535,%eax
    c8e2:	35 35 35 35 35       	xor    $0x35353535,%eax
    c8e7:	35 35 35 35 35       	xor    $0x35353535,%eax
    c8ec:	35 35 35 35 35       	xor    $0x35353535,%eax
    c8f1:	35 35 35 35 35       	xor    $0x35353535,%eax
    c8f6:	35 35 35 35 35       	xor    $0x35353535,%eax
    c8fb:	35 35 35 35 35       	xor    $0x35353535,%eax
    c900:	35 35 35 35 35       	xor    $0x35353535,%eax
    c905:	35 35 35 35 35       	xor    $0x35353535,%eax
    c90a:	35 35 35 35 35       	xor    $0x35353535,%eax
    c90f:	35 35 35 35 35       	xor    $0x35353535,%eax
    c914:	35 35 35 35 35       	xor    $0x35353535,%eax
    c919:	35 35 35 35 35       	xor    $0x35353535,%eax
    c91e:	35 35 35 35 35       	xor    $0x35353535,%eax
    c923:	35 35 35 35 35       	xor    $0x35353535,%eax
    c928:	35 35 35 35 35       	xor    $0x35353535,%eax
    c92d:	35 35 35 35 35       	xor    $0x35353535,%eax
    c932:	35 35 35 35 35       	xor    $0x35353535,%eax
    c937:	35 35 35 35 35       	xor    $0x35353535,%eax
    c93c:	35 35 35 35 35       	xor    $0x35353535,%eax
    c941:	35 35 35 35 35       	xor    $0x35353535,%eax
    c946:	35 35 35 35 35       	xor    $0x35353535,%eax
    c94b:	35 35 35 35 35       	xor    $0x35353535,%eax
    c950:	35 35 35 35 35       	xor    $0x35353535,%eax
    c955:	35 35 35 35 35       	xor    $0x35353535,%eax
    c95a:	35 35 35 35 35       	xor    $0x35353535,%eax
    c95f:	35 35 35 35 35       	xor    $0x35353535,%eax
    c964:	35 35 35 35 35       	xor    $0x35353535,%eax
    c969:	35 35 35 35 35       	xor    $0x35353535,%eax
    c96e:	35 35 35 35 35       	xor    $0x35353535,%eax
    c973:	35 35 35 35 35       	xor    $0x35353535,%eax
    c978:	35 35 35 35 35       	xor    $0x35353535,%eax
    c97d:	35 35 35 35 35       	xor    $0x35353535,%eax
    c982:	35 35 35 35 35       	xor    $0x35353535,%eax
    c987:	35 35 35 35 35       	xor    $0x35353535,%eax
    c98c:	35 35 35 35 35       	xor    $0x35353535,%eax
    c991:	35 35 35 35 35       	xor    $0x35353535,%eax
    c996:	35 35 35 35 35       	xor    $0x35353535,%eax
    c99b:	35 35 35 35 35       	xor    $0x35353535,%eax
    c9a0:	35 35 35 35 35       	xor    $0x35353535,%eax
    c9a5:	35 35 35 35 35       	xor    $0x35353535,%eax
    c9aa:	35 35 35 35 35       	xor    $0x35353535,%eax
    c9af:	35 35 35 35 35       	xor    $0x35353535,%eax
    c9b4:	35 35 35 35 35       	xor    $0x35353535,%eax
    c9b9:	35 35 35 35 35       	xor    $0x35353535,%eax
    c9be:	35 35 35 35 35       	xor    $0x35353535,%eax
    c9c3:	35 35 35 35 35       	xor    $0x35353535,%eax
    c9c8:	35 35 35 35 35       	xor    $0x35353535,%eax
    c9cd:	35 35 35 35 35       	xor    $0x35353535,%eax
    c9d2:	35 35 35 35 35       	xor    $0x35353535,%eax
    c9d7:	35 35 35 35 35       	xor    $0x35353535,%eax
    c9dc:	35 35 35 35 35       	xor    $0x35353535,%eax
    c9e1:	35 35 35 35 35       	xor    $0x35353535,%eax
    c9e6:	35 35 35 35 35       	xor    $0x35353535,%eax
    c9eb:	35 35 35 35 35       	xor    $0x35353535,%eax
    c9f0:	35 35 35 35 35       	xor    $0x35353535,%eax
    c9f5:	35 35 35 35 35       	xor    $0x35353535,%eax
    c9fa:	35 35 35 35 35       	xor    $0x35353535,%eax
    c9ff:	35 35 35 35 35       	xor    $0x35353535,%eax
    ca04:	35 35 35 35 35       	xor    $0x35353535,%eax
    ca09:	35 35 35 35 35       	xor    $0x35353535,%eax
    ca0e:	35 35 35 35 35       	xor    $0x35353535,%eax
    ca13:	35 35 35 35 35       	xor    $0x35353535,%eax
    ca18:	35 35 35 35 35       	xor    $0x35353535,%eax
    ca1d:	35 35 35 35 35       	xor    $0x35353535,%eax
    ca22:	35 35 35 35 35       	xor    $0x35353535,%eax
    ca27:	35 35 35 35 35       	xor    $0x35353535,%eax
    ca2c:	35 35 35 35 35       	xor    $0x35353535,%eax
    ca31:	35 35 35 35 35       	xor    $0x35353535,%eax
    ca36:	35 35 35 35 35       	xor    $0x35353535,%eax
    ca3b:	35 35 35 35 35       	xor    $0x35353535,%eax
    ca40:	35 35 35 35 35       	xor    $0x35353535,%eax
    ca45:	35 35 35 35 35       	xor    $0x35353535,%eax
    ca4a:	35 35 35 35 35       	xor    $0x35353535,%eax
    ca4f:	35 35 35 35 35       	xor    $0x35353535,%eax
    ca54:	35 35 35 35 35       	xor    $0x35353535,%eax
    ca59:	35 35 35 35 35       	xor    $0x35353535,%eax
    ca5e:	35 35 35 35 35       	xor    $0x35353535,%eax
    ca63:	35 35 35 35 35       	xor    $0x35353535,%eax
    ca68:	35 35 35 35 35       	xor    $0x35353535,%eax
    ca6d:	35 35 35 35 35       	xor    $0x35353535,%eax
    ca72:	35 35 35 35 35       	xor    $0x35353535,%eax
    ca77:	35 35 35 35 35       	xor    $0x35353535,%eax
    ca7c:	35 35 35 35 35       	xor    $0x35353535,%eax
    ca81:	35 35 35 35 35       	xor    $0x35353535,%eax
    ca86:	35 35 35 35 35       	xor    $0x35353535,%eax
    ca8b:	35 35 35 35 35       	xor    $0x35353535,%eax
    ca90:	35 35 35 35 35       	xor    $0x35353535,%eax
    ca95:	35 35 35 35 35       	xor    $0x35353535,%eax
    ca9a:	35 35 35 35 35       	xor    $0x35353535,%eax
    ca9f:	35 35 35 35 35       	xor    $0x35353535,%eax
    caa4:	35 35 35 35 35       	xor    $0x35353535,%eax
    caa9:	35 35 35 35 35       	xor    $0x35353535,%eax
    caae:	35 35 35 35 35       	xor    $0x35353535,%eax
    cab3:	35 35 35 35 35       	xor    $0x35353535,%eax
    cab8:	35 35 35 35 35       	xor    $0x35353535,%eax
    cabd:	35 35 35 35 35       	xor    $0x35353535,%eax
    cac2:	35 35 35 35 35       	xor    $0x35353535,%eax
    cac7:	35 35 35 35 35       	xor    $0x35353535,%eax
    cacc:	35 35 35 35 35       	xor    $0x35353535,%eax
    cad1:	35 35 35 35 35       	xor    $0x35353535,%eax
    cad6:	35 35 35 35 35       	xor    $0x35353535,%eax
    cadb:	35 35 35 35 35       	xor    $0x35353535,%eax
    cae0:	35 35 35 35 35       	xor    $0x35353535,%eax
    cae5:	35 35 35 35 35       	xor    $0x35353535,%eax
    caea:	35 35 35 35 35       	xor    $0x35353535,%eax
    caef:	35 35 35 35 35       	xor    $0x35353535,%eax
    caf4:	35 35 35 35 35       	xor    $0x35353535,%eax
    caf9:	35 35 35 35 35       	xor    $0x35353535,%eax
    cafe:	35 35 35 35 35       	xor    $0x35353535,%eax
    cb03:	35 35 35 35 35       	xor    $0x35353535,%eax
    cb08:	35 35 35 35 35       	xor    $0x35353535,%eax
    cb0d:	35 35 35 35 35       	xor    $0x35353535,%eax
    cb12:	35 35 35 35 35       	xor    $0x35353535,%eax
    cb17:	35 35 35 35 35       	xor    $0x35353535,%eax
    cb1c:	35 35 35 35 35       	xor    $0x35353535,%eax
    cb21:	35 35 35 35 35       	xor    $0x35353535,%eax
    cb26:	35 35 35 35 35       	xor    $0x35353535,%eax
    cb2b:	35 35 35 35 35       	xor    $0x35353535,%eax
    cb30:	35 35 35 35 35       	xor    $0x35353535,%eax
    cb35:	35 35 35 35 35       	xor    $0x35353535,%eax
    cb3a:	35 35 35 35 35       	xor    $0x35353535,%eax
    cb3f:	35 35 35 35 35       	xor    $0x35353535,%eax
    cb44:	35 35 35 35 35       	xor    $0x35353535,%eax
    cb49:	35 35 35 35 35       	xor    $0x35353535,%eax
    cb4e:	35 35 35 35 35       	xor    $0x35353535,%eax
    cb53:	35 35 35 35 35       	xor    $0x35353535,%eax
    cb58:	35 35 35 35 35       	xor    $0x35353535,%eax
    cb5d:	35 35 35 35 35       	xor    $0x35353535,%eax
    cb62:	35 35 35 35 35       	xor    $0x35353535,%eax
    cb67:	35 35 35 35 35       	xor    $0x35353535,%eax
    cb6c:	35 35 35 35 35       	xor    $0x35353535,%eax
    cb71:	35 35 35 35 35       	xor    $0x35353535,%eax
    cb76:	35 35 35 35 35       	xor    $0x35353535,%eax
    cb7b:	35 35 35 35 35       	xor    $0x35353535,%eax
    cb80:	35 35 35 35 35       	xor    $0x35353535,%eax
    cb85:	35 35 35 35 35       	xor    $0x35353535,%eax
    cb8a:	35 35 35 35 35       	xor    $0x35353535,%eax
    cb8f:	35 35 35 35 35       	xor    $0x35353535,%eax
    cb94:	35 35 35 35 35       	xor    $0x35353535,%eax
    cb99:	35 35 35 35 35       	xor    $0x35353535,%eax
    cb9e:	35 35 35 35 35       	xor    $0x35353535,%eax
    cba3:	35 35 35 35 35       	xor    $0x35353535,%eax
    cba8:	35 35 35 35 35       	xor    $0x35353535,%eax
    cbad:	35 35 35 35 35       	xor    $0x35353535,%eax
    cbb2:	35 35 35 35 35       	xor    $0x35353535,%eax
    cbb7:	35 35 35 35 35       	xor    $0x35353535,%eax
    cbbc:	35 35 35 35 35       	xor    $0x35353535,%eax
    cbc1:	35 35 35 35 35       	xor    $0x35353535,%eax
    cbc6:	35 35 35 35 35       	xor    $0x35353535,%eax
    cbcb:	35 35 35 35 35       	xor    $0x35353535,%eax
    cbd0:	35 35 35 35 35       	xor    $0x35353535,%eax
    cbd5:	35 35 35 35 35       	xor    $0x35353535,%eax
    cbda:	35 35 35 35 35       	xor    $0x35353535,%eax
    cbdf:	35 35 35 35 35       	xor    $0x35353535,%eax
    cbe4:	35 35 35 35 35       	xor    $0x35353535,%eax
    cbe9:	35 35 35 35 35       	xor    $0x35353535,%eax
    cbee:	35 35 35 35 35       	xor    $0x35353535,%eax
    cbf3:	35 35 35 35 35       	xor    $0x35353535,%eax
    cbf8:	35 35 35 35 35       	xor    $0x35353535,%eax
    cbfd:	35 35 35 35 35       	xor    $0x35353535,%eax
    cc02:	35 35 35 35 35       	xor    $0x35353535,%eax
    cc07:	35 35 35 35 35       	xor    $0x35353535,%eax
    cc0c:	35 35 35 35 35       	xor    $0x35353535,%eax
    cc11:	35 35 35 35 35       	xor    $0x35353535,%eax
    cc16:	35 35 35 35 35       	xor    $0x35353535,%eax
    cc1b:	35 35 35 35 35       	xor    $0x35353535,%eax
    cc20:	35 35 35 35 35       	xor    $0x35353535,%eax
    cc25:	35 35 35 35 35       	xor    $0x35353535,%eax
    cc2a:	35 35 35 35 35       	xor    $0x35353535,%eax
    cc2f:	35 35 35 35 35       	xor    $0x35353535,%eax
    cc34:	35 35 35 35 35       	xor    $0x35353535,%eax
    cc39:	35 35 35 35 35       	xor    $0x35353535,%eax
    cc3e:	35 35 35 35 35       	xor    $0x35353535,%eax
    cc43:	35 35 35 35 35       	xor    $0x35353535,%eax
    cc48:	35 35 35 35 35       	xor    $0x35353535,%eax
    cc4d:	35 35 35 35 35       	xor    $0x35353535,%eax
    cc52:	35 35 35 35 35       	xor    $0x35353535,%eax
    cc57:	35 35 35 35 35       	xor    $0x35353535,%eax
    cc5c:	35 35 35 35 35       	xor    $0x35353535,%eax
    cc61:	35 35 35 35 35       	xor    $0x35353535,%eax
    cc66:	35 35 35 35 35       	xor    $0x35353535,%eax
    cc6b:	35 35 35 35 35       	xor    $0x35353535,%eax
    cc70:	35 35 35 35 35       	xor    $0x35353535,%eax
    cc75:	35 35 35 35 35       	xor    $0x35353535,%eax
    cc7a:	35 35 35 35 35       	xor    $0x35353535,%eax
    cc7f:	35 35 35 35 35       	xor    $0x35353535,%eax
    cc84:	35 35 35 35 35       	xor    $0x35353535,%eax
    cc89:	35 35 35 35 35       	xor    $0x35353535,%eax
    cc8e:	35 35 35 35 35       	xor    $0x35353535,%eax
    cc93:	35 35 35 35 35       	xor    $0x35353535,%eax
    cc98:	35 35 35 35 35       	xor    $0x35353535,%eax
    cc9d:	35 35 35 35 35       	xor    $0x35353535,%eax
    cca2:	35 35 35 35 35       	xor    $0x35353535,%eax
    cca7:	35 35 35 35 35       	xor    $0x35353535,%eax
    ccac:	35 35 35 35 35       	xor    $0x35353535,%eax
    ccb1:	35 35 35 35 35       	xor    $0x35353535,%eax
    ccb6:	35 35 35 35 35       	xor    $0x35353535,%eax
    ccbb:	35 35 35 35 35       	xor    $0x35353535,%eax
    ccc0:	35 35 35 35 35       	xor    $0x35353535,%eax
    ccc5:	35 35 35 35 35       	xor    $0x35353535,%eax
    ccca:	35 35 35 35 35       	xor    $0x35353535,%eax
    cccf:	35 35 35 35 35       	xor    $0x35353535,%eax
    ccd4:	35 35 35 35 35       	xor    $0x35353535,%eax
    ccd9:	35 35 35 35 35       	xor    $0x35353535,%eax
    ccde:	35 35 35 35 35       	xor    $0x35353535,%eax
    cce3:	35 35 35 35 35       	xor    $0x35353535,%eax
    cce8:	35 35 35 35 35       	xor    $0x35353535,%eax
    cced:	35 35 35 35 35       	xor    $0x35353535,%eax
    ccf2:	35 35 35 35 35       	xor    $0x35353535,%eax
    ccf7:	35 35 35 35 35       	xor    $0x35353535,%eax
    ccfc:	35 35 35 35 35       	xor    $0x35353535,%eax
    cd01:	35 35 35 35 35       	xor    $0x35353535,%eax
    cd06:	35 35 35 35 35       	xor    $0x35353535,%eax
    cd0b:	35 35 35 35 35       	xor    $0x35353535,%eax
    cd10:	35 35 35 35 35       	xor    $0x35353535,%eax
    cd15:	35 35 35 35 35       	xor    $0x35353535,%eax
    cd1a:	35 35 35 35 35       	xor    $0x35353535,%eax
    cd1f:	35 35 35 35 35       	xor    $0x35353535,%eax
    cd24:	35 35 35 35 35       	xor    $0x35353535,%eax
    cd29:	35 35 35 35 35       	xor    $0x35353535,%eax
    cd2e:	35 35 35 35 35       	xor    $0x35353535,%eax
    cd33:	35 35 35 35 35       	xor    $0x35353535,%eax
    cd38:	35 35 35 35 35       	xor    $0x35353535,%eax
    cd3d:	35 35 35 35 35       	xor    $0x35353535,%eax
    cd42:	35 35 35 35 35       	xor    $0x35353535,%eax
    cd47:	35 35 35 35 35       	xor    $0x35353535,%eax
    cd4c:	35 35 35 35 35       	xor    $0x35353535,%eax
    cd51:	35 35 35 35 35       	xor    $0x35353535,%eax
    cd56:	35 35 35 35 35       	xor    $0x35353535,%eax
    cd5b:	35 35 35 35 35       	xor    $0x35353535,%eax
    cd60:	35 35 35 35 35       	xor    $0x35353535,%eax
    cd65:	35 35 35 35 35       	xor    $0x35353535,%eax
    cd6a:	35 35 35 35 35       	xor    $0x35353535,%eax
    cd6f:	35 35 35 35 35       	xor    $0x35353535,%eax
    cd74:	35 35 35 35 35       	xor    $0x35353535,%eax
    cd79:	35 35 35 35 35       	xor    $0x35353535,%eax
    cd7e:	35 35 35 35 35       	xor    $0x35353535,%eax
    cd83:	35 35 35 35 35       	xor    $0x35353535,%eax
    cd88:	35 35 35 35 35       	xor    $0x35353535,%eax
    cd8d:	35 35 35 35 35       	xor    $0x35353535,%eax
    cd92:	35 35 35 35 35       	xor    $0x35353535,%eax
    cd97:	35 35 35 35 35       	xor    $0x35353535,%eax
    cd9c:	35 35 35 35 35       	xor    $0x35353535,%eax
    cda1:	35 35 35 35 35       	xor    $0x35353535,%eax
    cda6:	35 35 35 35 35       	xor    $0x35353535,%eax
    cdab:	35 35 35 35 35       	xor    $0x35353535,%eax
    cdb0:	35 35 35 35 35       	xor    $0x35353535,%eax
    cdb5:	35 35 35 35 35       	xor    $0x35353535,%eax
    cdba:	35 35 35 35 35       	xor    $0x35353535,%eax
    cdbf:	35 35 35 35 35       	xor    $0x35353535,%eax
    cdc4:	35 35 35 35 35       	xor    $0x35353535,%eax
    cdc9:	35 35 35 35 35       	xor    $0x35353535,%eax
    cdce:	35 35 35 35 35       	xor    $0x35353535,%eax
    cdd3:	35 35 35 35 35       	xor    $0x35353535,%eax
    cdd8:	35 35 35 35 35       	xor    $0x35353535,%eax
    cddd:	35 35 35 35 35       	xor    $0x35353535,%eax
    cde2:	35 35 35 35 35       	xor    $0x35353535,%eax
    cde7:	35 35 35 35 35       	xor    $0x35353535,%eax
    cdec:	35 35 35 35 35       	xor    $0x35353535,%eax
    cdf1:	35 35 35 35 35       	xor    $0x35353535,%eax
    cdf6:	35 35 35 35 35       	xor    $0x35353535,%eax
    cdfb:	35 35 35 35 35       	xor    $0x35353535,%eax
    ce00:	35 35 35 35 35       	xor    $0x35353535,%eax
    ce05:	35 35 35 35 35       	xor    $0x35353535,%eax
    ce0a:	35 35 35 35 35       	xor    $0x35353535,%eax
    ce0f:	35 35 35 35 35       	xor    $0x35353535,%eax
    ce14:	35 35 35 35 35       	xor    $0x35353535,%eax
    ce19:	35 35 35 35 35       	xor    $0x35353535,%eax
    ce1e:	35 35 35 35 35       	xor    $0x35353535,%eax
    ce23:	35 35 35 35 35       	xor    $0x35353535,%eax
    ce28:	35 35 35 35 35       	xor    $0x35353535,%eax
    ce2d:	35 35 35 35 35       	xor    $0x35353535,%eax
    ce32:	35 35 35 35 35       	xor    $0x35353535,%eax
    ce37:	35 35 35 35 35       	xor    $0x35353535,%eax
    ce3c:	35 35 35 35 35       	xor    $0x35353535,%eax
    ce41:	35 35 35 35 35       	xor    $0x35353535,%eax
    ce46:	35 35 35 35 35       	xor    $0x35353535,%eax
    ce4b:	35 35 35 35 35       	xor    $0x35353535,%eax
    ce50:	35 35 35 35 35       	xor    $0x35353535,%eax
    ce55:	35 35 35 35 35       	xor    $0x35353535,%eax
    ce5a:	35 35 35 35 35       	xor    $0x35353535,%eax
    ce5f:	35 35 35 35 35       	xor    $0x35353535,%eax
    ce64:	35 35 35 35 35       	xor    $0x35353535,%eax
    ce69:	35 35 35 35 35       	xor    $0x35353535,%eax
    ce6e:	35 35 35 35 35       	xor    $0x35353535,%eax
    ce73:	35 35 35 35 35       	xor    $0x35353535,%eax
    ce78:	35 35 35 35 35       	xor    $0x35353535,%eax
    ce7d:	35 35 35 35 35       	xor    $0x35353535,%eax
    ce82:	35 35 35 35 35       	xor    $0x35353535,%eax
    ce87:	35 35 35 35 35       	xor    $0x35353535,%eax
    ce8c:	35 35 35 35 35       	xor    $0x35353535,%eax
    ce91:	35 35 35 35 35       	xor    $0x35353535,%eax
    ce96:	35 35 35 35 35       	xor    $0x35353535,%eax
    ce9b:	35 35 35 35 35       	xor    $0x35353535,%eax
    cea0:	35 35 35 35 35       	xor    $0x35353535,%eax
    cea5:	35 35 35 35 35       	xor    $0x35353535,%eax
    ceaa:	35 35 35 35 35       	xor    $0x35353535,%eax
    ceaf:	35 35 35 35 35       	xor    $0x35353535,%eax
    ceb4:	35 35 35 35 35       	xor    $0x35353535,%eax
    ceb9:	35 35 35 35 35       	xor    $0x35353535,%eax
    cebe:	35 35 35 35 35       	xor    $0x35353535,%eax
    cec3:	35 35 35 35 35       	xor    $0x35353535,%eax
    cec8:	35 35 35 35 35       	xor    $0x35353535,%eax
    cecd:	35 35 35 35 35       	xor    $0x35353535,%eax
    ced2:	35 35 35 35 35       	xor    $0x35353535,%eax
    ced7:	35 35 35 35 35       	xor    $0x35353535,%eax
    cedc:	35 35 35 35 35       	xor    $0x35353535,%eax
    cee1:	35 35 35 35 35       	xor    $0x35353535,%eax
    cee6:	35 35 35 35 35       	xor    $0x35353535,%eax
    ceeb:	35 35 35 35 35       	xor    $0x35353535,%eax
    cef0:	35 35 35 35 35       	xor    $0x35353535,%eax
    cef5:	35 35 35 35 35       	xor    $0x35353535,%eax
    cefa:	35 35 35 35 35       	xor    $0x35353535,%eax
    ceff:	35 35 35 35 35       	xor    $0x35353535,%eax
    cf04:	35 35 35 35 35       	xor    $0x35353535,%eax
    cf09:	35 35 35 35 35       	xor    $0x35353535,%eax
    cf0e:	35 35 35 35 35       	xor    $0x35353535,%eax
    cf13:	35 35 35 35 35       	xor    $0x35353535,%eax
    cf18:	35 35 35 35 35       	xor    $0x35353535,%eax
    cf1d:	35 35 35 35 35       	xor    $0x35353535,%eax
    cf22:	35 35 35 35 35       	xor    $0x35353535,%eax
    cf27:	35 35 35 35 35       	xor    $0x35353535,%eax
    cf2c:	35 35 35 35 35       	xor    $0x35353535,%eax
    cf31:	35 35 35 35 35       	xor    $0x35353535,%eax
    cf36:	35 35 35 35 35       	xor    $0x35353535,%eax
    cf3b:	35 35 35 35 35       	xor    $0x35353535,%eax
    cf40:	35 35 35 35 35       	xor    $0x35353535,%eax
    cf45:	35 35 35 35 35       	xor    $0x35353535,%eax
    cf4a:	35 35 35 35 35       	xor    $0x35353535,%eax
    cf4f:	35 35 35 35 35       	xor    $0x35353535,%eax
    cf54:	35 35 35 35 35       	xor    $0x35353535,%eax
    cf59:	35 35 35 35 35       	xor    $0x35353535,%eax
    cf5e:	35 35 35 35 35       	xor    $0x35353535,%eax
    cf63:	35 35 35 35 35       	xor    $0x35353535,%eax
    cf68:	35 35 35 35 35       	xor    $0x35353535,%eax
    cf6d:	35 35 35 35 35       	xor    $0x35353535,%eax
    cf72:	35 35 35 35 35       	xor    $0x35353535,%eax
    cf77:	35 35 35 35 35       	xor    $0x35353535,%eax
    cf7c:	35 35 35 35 35       	xor    $0x35353535,%eax
    cf81:	35 35 35 35 35       	xor    $0x35353535,%eax
    cf86:	35 35 35 35 35       	xor    $0x35353535,%eax
    cf8b:	35 35 35 35 35       	xor    $0x35353535,%eax
    cf90:	35 35 35 35 35       	xor    $0x35353535,%eax
    cf95:	35 35 35 35 35       	xor    $0x35353535,%eax
    cf9a:	35 35 35 35 35       	xor    $0x35353535,%eax
    cf9f:	35 35 35 35 35       	xor    $0x35353535,%eax
    cfa4:	35 35 35 35 35       	xor    $0x35353535,%eax
    cfa9:	35 35 35 35 35       	xor    $0x35353535,%eax
    cfae:	35 35 35 35 35       	xor    $0x35353535,%eax
    cfb3:	35 35 35 35 35       	xor    $0x35353535,%eax
    cfb8:	35 35 35 35 35       	xor    $0x35353535,%eax
    cfbd:	35 35 35 35 35       	xor    $0x35353535,%eax
    cfc2:	35 35 35 35 35       	xor    $0x35353535,%eax
    cfc7:	35 35 35 35 35       	xor    $0x35353535,%eax
    cfcc:	35 35 35 35 35       	xor    $0x35353535,%eax
    cfd1:	35 35 35 35 35       	xor    $0x35353535,%eax
    cfd6:	35 35 35 35 35       	xor    $0x35353535,%eax
    cfdb:	35 35 35 35 35       	xor    $0x35353535,%eax
    cfe0:	35 35 35 35 35       	xor    $0x35353535,%eax
    cfe5:	35 35 35 35 35       	xor    $0x35353535,%eax
    cfea:	35 35 35 35 35       	xor    $0x35353535,%eax
    cfef:	35 35 35 35 35       	xor    $0x35353535,%eax
    cff4:	35 35 35 35 35       	xor    $0x35353535,%eax
    cff9:	35 35 35 35 35       	xor    $0x35353535,%eax
    cffe:	35 35 35 35 35       	xor    $0x35353535,%eax
    d003:	35 35 35 35 35       	xor    $0x35353535,%eax
    d008:	35 35 35 35 35       	xor    $0x35353535,%eax
    d00d:	35 35 35 35 35       	xor    $0x35353535,%eax
    d012:	35 35 35 35 35       	xor    $0x35353535,%eax
    d017:	35 35 35 35 35       	xor    $0x35353535,%eax
    d01c:	35 35 35 35 35       	xor    $0x35353535,%eax
    d021:	35 35 35 35 35       	xor    $0x35353535,%eax
    d026:	35 35 35 35 35       	xor    $0x35353535,%eax
    d02b:	35 35 35 35 35       	xor    $0x35353535,%eax
    d030:	35 35 35 35 35       	xor    $0x35353535,%eax
    d035:	35 35 35 35 35       	xor    $0x35353535,%eax
    d03a:	35 35 35 35 35       	xor    $0x35353535,%eax
    d03f:	35 35 35 35 35       	xor    $0x35353535,%eax
    d044:	35 35 35 35 35       	xor    $0x35353535,%eax
    d049:	35 35 35 35 35       	xor    $0x35353535,%eax
    d04e:	35 35 35 35 35       	xor    $0x35353535,%eax
    d053:	35 35 35 35 35       	xor    $0x35353535,%eax
    d058:	35 35 35 35 35       	xor    $0x35353535,%eax
    d05d:	35 35 35 35 35       	xor    $0x35353535,%eax
    d062:	35 35 35 35 35       	xor    $0x35353535,%eax
    d067:	35 35 35 35 35       	xor    $0x35353535,%eax
    d06c:	35 35 35 35 35       	xor    $0x35353535,%eax
    d071:	35 35 35 35 35       	xor    $0x35353535,%eax
    d076:	35 35 35 35 35       	xor    $0x35353535,%eax
    d07b:	35 35 35 35 35       	xor    $0x35353535,%eax
    d080:	35 35 35 35 35       	xor    $0x35353535,%eax
    d085:	35 35 35 35 35       	xor    $0x35353535,%eax
    d08a:	35 35 35 35 35       	xor    $0x35353535,%eax
    d08f:	35 35 35 35 35       	xor    $0x35353535,%eax
    d094:	35 35 35 35 35       	xor    $0x35353535,%eax
    d099:	35 35 35 35 35       	xor    $0x35353535,%eax
    d09e:	35 35 35 35 35       	xor    $0x35353535,%eax
    d0a3:	35 35 35 35 35       	xor    $0x35353535,%eax
    d0a8:	35 35 35 35 35       	xor    $0x35353535,%eax
    d0ad:	35 35 35 35 35       	xor    $0x35353535,%eax
    d0b2:	35 35 35 35 35       	xor    $0x35353535,%eax
    d0b7:	35 35 35 35 35       	xor    $0x35353535,%eax
    d0bc:	35 35 35 35 35       	xor    $0x35353535,%eax
    d0c1:	35 35 35 35 35       	xor    $0x35353535,%eax
    d0c6:	35 35 35 35 35       	xor    $0x35353535,%eax
    d0cb:	35 35 35 35 35       	xor    $0x35353535,%eax
    d0d0:	35 35 35 35 35       	xor    $0x35353535,%eax
    d0d5:	35 35 35 35 35       	xor    $0x35353535,%eax
    d0da:	35 35 35 35 35       	xor    $0x35353535,%eax
    d0df:	35 35 35 35 35       	xor    $0x35353535,%eax
    d0e4:	35 35 35 35 35       	xor    $0x35353535,%eax
    d0e9:	35 35 35 35 35       	xor    $0x35353535,%eax
    d0ee:	35 35 35 35 35       	xor    $0x35353535,%eax
    d0f3:	35 35 35 35 35       	xor    $0x35353535,%eax
    d0f8:	35 35 35 35 35       	xor    $0x35353535,%eax
    d0fd:	35 35 35 35 35       	xor    $0x35353535,%eax
    d102:	35 35 35 35 35       	xor    $0x35353535,%eax
    d107:	35 35 35 35 35       	xor    $0x35353535,%eax
    d10c:	35 35 35 35 35       	xor    $0x35353535,%eax
    d111:	35 35 35 35 35       	xor    $0x35353535,%eax
    d116:	35 35 35 35 35       	xor    $0x35353535,%eax
    d11b:	35 35 35 35 35       	xor    $0x35353535,%eax
    d120:	35 35 35 35 35       	xor    $0x35353535,%eax
    d125:	35 35 35 35 35       	xor    $0x35353535,%eax
    d12a:	35 35 35 35 35       	xor    $0x35353535,%eax
    d12f:	35 35 35 35 35       	xor    $0x35353535,%eax
    d134:	35 35 35 35 35       	xor    $0x35353535,%eax
    d139:	35 35 35 35 35       	xor    $0x35353535,%eax
    d13e:	35 35 35 35 35       	xor    $0x35353535,%eax
    d143:	35 35 35 35 35       	xor    $0x35353535,%eax
    d148:	35 35 35 35 35       	xor    $0x35353535,%eax
    d14d:	35 35 35 35 35       	xor    $0x35353535,%eax
    d152:	35 35 35 35 35       	xor    $0x35353535,%eax
    d157:	35 35 35 35 35       	xor    $0x35353535,%eax
    d15c:	35 35 35 35 35       	xor    $0x35353535,%eax
    d161:	35 35 35 35 35       	xor    $0x35353535,%eax
    d166:	35 35 35 35 35       	xor    $0x35353535,%eax
    d16b:	35 35 35 35 35       	xor    $0x35353535,%eax
    d170:	35 35 35 35 35       	xor    $0x35353535,%eax
    d175:	35 35 35 35 35       	xor    $0x35353535,%eax
    d17a:	35 35 35 35 35       	xor    $0x35353535,%eax
    d17f:	35 35 35 35 35       	xor    $0x35353535,%eax
    d184:	35 35 35 35 35       	xor    $0x35353535,%eax
    d189:	35 35 35 35 35       	xor    $0x35353535,%eax
    d18e:	35 35 35 35 35       	xor    $0x35353535,%eax
    d193:	35 35 35 35 35       	xor    $0x35353535,%eax
    d198:	35 35 35 35 35       	xor    $0x35353535,%eax
    d19d:	35 35 35 35 35       	xor    $0x35353535,%eax
    d1a2:	35 35 35 35 35       	xor    $0x35353535,%eax
    d1a7:	35 35 35 35 35       	xor    $0x35353535,%eax
    d1ac:	35 35 35 35 35       	xor    $0x35353535,%eax
    d1b1:	35 35 35 35 35       	xor    $0x35353535,%eax
    d1b6:	35 35 35 35 35       	xor    $0x35353535,%eax
    d1bb:	35 35 35 35 35       	xor    $0x35353535,%eax
    d1c0:	35 35 35 35 35       	xor    $0x35353535,%eax
    d1c5:	35 35 35 35 35       	xor    $0x35353535,%eax
    d1ca:	35 35 35 35 35       	xor    $0x35353535,%eax
    d1cf:	35 35 35 35 35       	xor    $0x35353535,%eax
    d1d4:	35 35 35 35 35       	xor    $0x35353535,%eax
    d1d9:	35 35 35 35 35       	xor    $0x35353535,%eax
    d1de:	35 35 35 35 35       	xor    $0x35353535,%eax
    d1e3:	35 35 35 35 35       	xor    $0x35353535,%eax
    d1e8:	35 35 35 35 35       	xor    $0x35353535,%eax
    d1ed:	35 35 35 35 35       	xor    $0x35353535,%eax
    d1f2:	35 35 35 35 35       	xor    $0x35353535,%eax
    d1f7:	35 35 35 35 35       	xor    $0x35353535,%eax
    d1fc:	35 35 35 35 35       	xor    $0x35353535,%eax
    d201:	35 35 35 35 35       	xor    $0x35353535,%eax
    d206:	35 35 35 35 35       	xor    $0x35353535,%eax
    d20b:	35 35 35 35 35       	xor    $0x35353535,%eax
    d210:	35 35 35 35 35       	xor    $0x35353535,%eax
    d215:	35 35 35 35 35       	xor    $0x35353535,%eax
    d21a:	35 35 35 35 35       	xor    $0x35353535,%eax
    d21f:	35 35 35 35 35       	xor    $0x35353535,%eax
    d224:	35 35 35 35 35       	xor    $0x35353535,%eax
    d229:	35 35 35 35 35       	xor    $0x35353535,%eax
    d22e:	35 35 35 35 35       	xor    $0x35353535,%eax
    d233:	35 35 35 35 35       	xor    $0x35353535,%eax
    d238:	35 35 35 35 35       	xor    $0x35353535,%eax
    d23d:	35 35 35 35 35       	xor    $0x35353535,%eax
    d242:	35 35 35 35 35       	xor    $0x35353535,%eax
    d247:	35 35 35 35 35       	xor    $0x35353535,%eax
    d24c:	35 35 35 35 35       	xor    $0x35353535,%eax
    d251:	35 35 35 35 35       	xor    $0x35353535,%eax
    d256:	35 35 35 35 35       	xor    $0x35353535,%eax
    d25b:	35 35 35 35 35       	xor    $0x35353535,%eax
    d260:	35 35 35 35 35       	xor    $0x35353535,%eax
    d265:	35 35 35 35 35       	xor    $0x35353535,%eax
    d26a:	35 35 35 35 35       	xor    $0x35353535,%eax
    d26f:	35 35 35 35 35       	xor    $0x35353535,%eax
    d274:	35 35 35 35 35       	xor    $0x35353535,%eax
    d279:	35 35 35 35 35       	xor    $0x35353535,%eax
    d27e:	35 35 35 35 35       	xor    $0x35353535,%eax
    d283:	35 35 35 35 35       	xor    $0x35353535,%eax
    d288:	35 35 35 35 35       	xor    $0x35353535,%eax
    d28d:	35 35 35 35 35       	xor    $0x35353535,%eax
    d292:	35 35 35 35 35       	xor    $0x35353535,%eax
    d297:	35 35 35 35 35       	xor    $0x35353535,%eax
    d29c:	35 35 35 35 35       	xor    $0x35353535,%eax
    d2a1:	35 35 35 35 35       	xor    $0x35353535,%eax
    d2a6:	35 35 35 35 35       	xor    $0x35353535,%eax
    d2ab:	35 35 35 35 35       	xor    $0x35353535,%eax
    d2b0:	35 35 35 35 35       	xor    $0x35353535,%eax
    d2b5:	35 35 35 35 35       	xor    $0x35353535,%eax
    d2ba:	35 35 35 35 35       	xor    $0x35353535,%eax
    d2bf:	35 35 35 35 35       	xor    $0x35353535,%eax
    d2c4:	35 35 35 35 35       	xor    $0x35353535,%eax
    d2c9:	35 35 35 35 35       	xor    $0x35353535,%eax
    d2ce:	35 35 35 35 35       	xor    $0x35353535,%eax
    d2d3:	35 35 35 35 35       	xor    $0x35353535,%eax
    d2d8:	35 35 35 35 35       	xor    $0x35353535,%eax
    d2dd:	35 35 35 35 35       	xor    $0x35353535,%eax
    d2e2:	35 35 35 35 35       	xor    $0x35353535,%eax
    d2e7:	35 35 35 35 35       	xor    $0x35353535,%eax
    d2ec:	35 35 35 35 35       	xor    $0x35353535,%eax
    d2f1:	35 35 35 35 35       	xor    $0x35353535,%eax
    d2f6:	35 35 35 35 35       	xor    $0x35353535,%eax
    d2fb:	35 35 35 35 35       	xor    $0x35353535,%eax
    d300:	35 35 35 35 35       	xor    $0x35353535,%eax
    d305:	35 35 35 35 35       	xor    $0x35353535,%eax
    d30a:	35 35 35 35 35       	xor    $0x35353535,%eax
    d30f:	35 35 35 35 35       	xor    $0x35353535,%eax
    d314:	35 35 35 35 35       	xor    $0x35353535,%eax
    d319:	35 35 35 35 35       	xor    $0x35353535,%eax
    d31e:	35 35 35 35 35       	xor    $0x35353535,%eax
    d323:	35 35 35 35 35       	xor    $0x35353535,%eax
    d328:	35 35 35 35 35       	xor    $0x35353535,%eax
    d32d:	35 35 35 35 35       	xor    $0x35353535,%eax
    d332:	35 35 35 35 35       	xor    $0x35353535,%eax
    d337:	35 35 35 35 35       	xor    $0x35353535,%eax
    d33c:	35 35 35 35 35       	xor    $0x35353535,%eax
    d341:	35 35 35 35 35       	xor    $0x35353535,%eax
    d346:	35 35 35 35 35       	xor    $0x35353535,%eax
    d34b:	35 35 35 35 35       	xor    $0x35353535,%eax
    d350:	35 35 35 35 35       	xor    $0x35353535,%eax
    d355:	35 35 35 35 35       	xor    $0x35353535,%eax
    d35a:	35 35 35 35 35       	xor    $0x35353535,%eax
    d35f:	35 35 35 35 35       	xor    $0x35353535,%eax
    d364:	35 35 35 35 35       	xor    $0x35353535,%eax
    d369:	35 35 35 35 35       	xor    $0x35353535,%eax
    d36e:	35 35 35 35 35       	xor    $0x35353535,%eax
    d373:	35 35 35 35 35       	xor    $0x35353535,%eax
    d378:	35 35 35 35 35       	xor    $0x35353535,%eax
    d37d:	35 35 35 35 35       	xor    $0x35353535,%eax
    d382:	35 35 35 35 35       	xor    $0x35353535,%eax
    d387:	35 35 35 35 35       	xor    $0x35353535,%eax
    d38c:	35 35 35 35 35       	xor    $0x35353535,%eax
    d391:	35 35 35 35 35       	xor    $0x35353535,%eax
    d396:	35 35 35 35 35       	xor    $0x35353535,%eax
    d39b:	35 35 35 35 35       	xor    $0x35353535,%eax
    d3a0:	35 35 35 35 35       	xor    $0x35353535,%eax
    d3a5:	35 35 35 35 35       	xor    $0x35353535,%eax
    d3aa:	35 35 35 35 35       	xor    $0x35353535,%eax
    d3af:	35 35 35 35 35       	xor    $0x35353535,%eax
    d3b4:	35 35 35 35 35       	xor    $0x35353535,%eax
    d3b9:	35 35 35 35 35       	xor    $0x35353535,%eax
    d3be:	35 35 35 35 35       	xor    $0x35353535,%eax
    d3c3:	35 35 35 35 35       	xor    $0x35353535,%eax
    d3c8:	35 35 35 35 35       	xor    $0x35353535,%eax
    d3cd:	35 35 35 35 35       	xor    $0x35353535,%eax
    d3d2:	35 35 35 35 35       	xor    $0x35353535,%eax
    d3d7:	35 35 35 35 35       	xor    $0x35353535,%eax
    d3dc:	35 35 35 35 35       	xor    $0x35353535,%eax
    d3e1:	35 35 35 35 35       	xor    $0x35353535,%eax
    d3e6:	35 35 35 35 35       	xor    $0x35353535,%eax
    d3eb:	35 35 35 35 35       	xor    $0x35353535,%eax
    d3f0:	35 35 35 35 35       	xor    $0x35353535,%eax
    d3f5:	35 35 35 35 35       	xor    $0x35353535,%eax
    d3fa:	35 35 35 35 35       	xor    $0x35353535,%eax
    d3ff:	35 35 35 35 35       	xor    $0x35353535,%eax
    d404:	35 35 35 35 35       	xor    $0x35353535,%eax
    d409:	35 35 35 35 35       	xor    $0x35353535,%eax
    d40e:	35 35 35 35 35       	xor    $0x35353535,%eax
    d413:	35 35 35 35 35       	xor    $0x35353535,%eax
    d418:	35 35 35 35 35       	xor    $0x35353535,%eax
    d41d:	35 35 35 35 35       	xor    $0x35353535,%eax
    d422:	35 35 35 35 35       	xor    $0x35353535,%eax
    d427:	35 35 35 35 35       	xor    $0x35353535,%eax
    d42c:	35 35 35 35 35       	xor    $0x35353535,%eax
    d431:	35 35 35 35 35       	xor    $0x35353535,%eax
